
LEKTOR_MIKROCONTROLLER.elf:     file format elf32-avr

Sections:
Idx Name          Size      VMA       LMA       File off  Algn
  0 .data         00000002  00800200  00000280  00000314  2**0
                  CONTENTS, ALLOC, LOAD, DATA
  1 .text         00000280  00000000  00000000  00000094  2**1
                  CONTENTS, ALLOC, LOAD, READONLY, CODE
  2 .bss          00000004  00800202  00800202  00000316  2**0
                  ALLOC
  3 .comment      00000030  00000000  00000000  00000316  2**0
                  CONTENTS, READONLY
  4 .note.gnu.avr.deviceinfo 00000040  00000000  00000000  00000348  2**2
                  CONTENTS, READONLY
  5 .debug_aranges 00000088  00000000  00000000  00000388  2**0
                  CONTENTS, READONLY, DEBUGGING
  6 .debug_info   0000112c  00000000  00000000  00000410  2**0
                  CONTENTS, READONLY, DEBUGGING
  7 .debug_abbrev 00000df5  00000000  00000000  0000153c  2**0
                  CONTENTS, READONLY, DEBUGGING
  8 .debug_line   00000670  00000000  00000000  00002331  2**0
                  CONTENTS, READONLY, DEBUGGING
  9 .debug_frame  00000128  00000000  00000000  000029a4  2**2
                  CONTENTS, READONLY, DEBUGGING
 10 .debug_str    00000655  00000000  00000000  00002acc  2**0
                  CONTENTS, READONLY, DEBUGGING
 11 .debug_loc    00000426  00000000  00000000  00003121  2**0
                  CONTENTS, READONLY, DEBUGGING
 12 .debug_ranges 00000058  00000000  00000000  00003547  2**0
                  CONTENTS, READONLY, DEBUGGING

Disassembly of section .text:

00000000 <__vectors>:
   0:	71 c0       	rjmp	.+226    	; 0xe4 <__ctors_end>
   2:	00 00       	nop
   4:	ab c0       	rjmp	.+342    	; 0x15c <__vector_1>
   6:	00 00       	nop
   8:	8c c0       	rjmp	.+280    	; 0x122 <__bad_interrupt>
   a:	00 00       	nop
   c:	8a c0       	rjmp	.+276    	; 0x122 <__bad_interrupt>
   e:	00 00       	nop
  10:	88 c0       	rjmp	.+272    	; 0x122 <__bad_interrupt>
  12:	00 00       	nop
  14:	86 c0       	rjmp	.+268    	; 0x122 <__bad_interrupt>
  16:	00 00       	nop
  18:	84 c0       	rjmp	.+264    	; 0x122 <__bad_interrupt>
  1a:	00 00       	nop
  1c:	82 c0       	rjmp	.+260    	; 0x122 <__bad_interrupt>
  1e:	00 00       	nop
  20:	80 c0       	rjmp	.+256    	; 0x122 <__bad_interrupt>
  22:	00 00       	nop
  24:	7e c0       	rjmp	.+252    	; 0x122 <__bad_interrupt>
  26:	00 00       	nop
  28:	7c c0       	rjmp	.+248    	; 0x122 <__bad_interrupt>
  2a:	00 00       	nop
  2c:	7a c0       	rjmp	.+244    	; 0x122 <__bad_interrupt>
  2e:	00 00       	nop
  30:	78 c0       	rjmp	.+240    	; 0x122 <__bad_interrupt>
  32:	00 00       	nop
  34:	76 c0       	rjmp	.+236    	; 0x122 <__bad_interrupt>
  36:	00 00       	nop
  38:	74 c0       	rjmp	.+232    	; 0x122 <__bad_interrupt>
  3a:	00 00       	nop
  3c:	72 c0       	rjmp	.+228    	; 0x122 <__bad_interrupt>
  3e:	00 00       	nop
  40:	70 c0       	rjmp	.+224    	; 0x122 <__bad_interrupt>
  42:	00 00       	nop
  44:	6e c0       	rjmp	.+220    	; 0x122 <__bad_interrupt>
  46:	00 00       	nop
  48:	6c c0       	rjmp	.+216    	; 0x122 <__bad_interrupt>
  4a:	00 00       	nop
  4c:	6a c0       	rjmp	.+212    	; 0x122 <__bad_interrupt>
  4e:	00 00       	nop
  50:	d9 c0       	rjmp	.+434    	; 0x204 <__vector_20>
  52:	00 00       	nop
  54:	66 c0       	rjmp	.+204    	; 0x122 <__bad_interrupt>
  56:	00 00       	nop
  58:	64 c0       	rjmp	.+200    	; 0x122 <__bad_interrupt>
  5a:	00 00       	nop
  5c:	62 c0       	rjmp	.+196    	; 0x122 <__bad_interrupt>
  5e:	00 00       	nop
  60:	60 c0       	rjmp	.+192    	; 0x122 <__bad_interrupt>
  62:	00 00       	nop
  64:	5e c0       	rjmp	.+188    	; 0x122 <__bad_interrupt>
  66:	00 00       	nop
  68:	5c c0       	rjmp	.+184    	; 0x122 <__bad_interrupt>
  6a:	00 00       	nop
  6c:	5a c0       	rjmp	.+180    	; 0x122 <__bad_interrupt>
  6e:	00 00       	nop
  70:	58 c0       	rjmp	.+176    	; 0x122 <__bad_interrupt>
  72:	00 00       	nop
  74:	56 c0       	rjmp	.+172    	; 0x122 <__bad_interrupt>
  76:	00 00       	nop
  78:	54 c0       	rjmp	.+168    	; 0x122 <__bad_interrupt>
  7a:	00 00       	nop
  7c:	52 c0       	rjmp	.+164    	; 0x122 <__bad_interrupt>
  7e:	00 00       	nop
  80:	50 c0       	rjmp	.+160    	; 0x122 <__bad_interrupt>
  82:	00 00       	nop
  84:	4e c0       	rjmp	.+156    	; 0x122 <__bad_interrupt>
  86:	00 00       	nop
  88:	4c c0       	rjmp	.+152    	; 0x122 <__bad_interrupt>
  8a:	00 00       	nop
  8c:	4a c0       	rjmp	.+148    	; 0x122 <__bad_interrupt>
  8e:	00 00       	nop
  90:	48 c0       	rjmp	.+144    	; 0x122 <__bad_interrupt>
  92:	00 00       	nop
  94:	46 c0       	rjmp	.+140    	; 0x122 <__bad_interrupt>
  96:	00 00       	nop
  98:	44 c0       	rjmp	.+136    	; 0x122 <__bad_interrupt>
  9a:	00 00       	nop
  9c:	42 c0       	rjmp	.+132    	; 0x122 <__bad_interrupt>
  9e:	00 00       	nop
  a0:	40 c0       	rjmp	.+128    	; 0x122 <__bad_interrupt>
  a2:	00 00       	nop
  a4:	3e c0       	rjmp	.+124    	; 0x122 <__bad_interrupt>
  a6:	00 00       	nop
  a8:	3c c0       	rjmp	.+120    	; 0x122 <__bad_interrupt>
  aa:	00 00       	nop
  ac:	3a c0       	rjmp	.+116    	; 0x122 <__bad_interrupt>
  ae:	00 00       	nop
  b0:	38 c0       	rjmp	.+112    	; 0x122 <__bad_interrupt>
  b2:	00 00       	nop
  b4:	36 c0       	rjmp	.+108    	; 0x122 <__bad_interrupt>
  b6:	00 00       	nop
  b8:	34 c0       	rjmp	.+104    	; 0x122 <__bad_interrupt>
  ba:	00 00       	nop
  bc:	32 c0       	rjmp	.+100    	; 0x122 <__bad_interrupt>
  be:	00 00       	nop
  c0:	30 c0       	rjmp	.+96     	; 0x122 <__bad_interrupt>
  c2:	00 00       	nop
  c4:	2e c0       	rjmp	.+92     	; 0x122 <__bad_interrupt>
  c6:	00 00       	nop
  c8:	2c c0       	rjmp	.+88     	; 0x122 <__bad_interrupt>
  ca:	00 00       	nop
  cc:	2a c0       	rjmp	.+84     	; 0x122 <__bad_interrupt>
  ce:	00 00       	nop
  d0:	28 c0       	rjmp	.+80     	; 0x122 <__bad_interrupt>
  d2:	00 00       	nop
  d4:	26 c0       	rjmp	.+76     	; 0x122 <__bad_interrupt>
  d6:	00 00       	nop
  d8:	24 c0       	rjmp	.+72     	; 0x122 <__bad_interrupt>
  da:	00 00       	nop
  dc:	22 c0       	rjmp	.+68     	; 0x122 <__bad_interrupt>
  de:	00 00       	nop
  e0:	20 c0       	rjmp	.+64     	; 0x122 <__bad_interrupt>
	...

000000e4 <__ctors_end>:
  e4:	11 24       	eor	r1, r1
  e6:	1f be       	out	0x3f, r1	; 63
  e8:	cf ef       	ldi	r28, 0xFF	; 255
  ea:	d1 e2       	ldi	r29, 0x21	; 33
  ec:	de bf       	out	0x3e, r29	; 62
  ee:	cd bf       	out	0x3d, r28	; 61
  f0:	00 e0       	ldi	r16, 0x00	; 0
  f2:	0c bf       	out	0x3c, r16	; 60

000000f4 <__do_copy_data>:
  f4:	12 e0       	ldi	r17, 0x02	; 2
  f6:	a0 e0       	ldi	r26, 0x00	; 0
  f8:	b2 e0       	ldi	r27, 0x02	; 2
  fa:	e0 e8       	ldi	r30, 0x80	; 128
  fc:	f2 e0       	ldi	r31, 0x02	; 2
  fe:	00 e0       	ldi	r16, 0x00	; 0
 100:	0b bf       	out	0x3b, r16	; 59
 102:	02 c0       	rjmp	.+4      	; 0x108 <__do_copy_data+0x14>
 104:	07 90       	elpm	r0, Z+
 106:	0d 92       	st	X+, r0
 108:	a2 30       	cpi	r26, 0x02	; 2
 10a:	b1 07       	cpc	r27, r17
 10c:	d9 f7       	brne	.-10     	; 0x104 <__do_copy_data+0x10>

0000010e <__do_clear_bss>:
 10e:	22 e0       	ldi	r18, 0x02	; 2
 110:	a2 e0       	ldi	r26, 0x02	; 2
 112:	b2 e0       	ldi	r27, 0x02	; 2
 114:	01 c0       	rjmp	.+2      	; 0x118 <.do_clear_bss_start>

00000116 <.do_clear_bss_loop>:
 116:	1d 92       	st	X+, r1

00000118 <.do_clear_bss_start>:
 118:	a6 30       	cpi	r26, 0x06	; 6
 11a:	b2 07       	cpc	r27, r18
 11c:	e1 f7       	brne	.-8      	; 0x116 <.do_clear_bss_loop>
 11e:	02 d0       	rcall	.+4      	; 0x124 <main>
 120:	ad c0       	rjmp	.+346    	; 0x27c <_exit>

00000122 <__bad_interrupt>:
 122:	6e cf       	rjmp	.-292    	; 0x0 <__vectors>

00000124 <main>:
int main(void)
{
	//------------------------------------//
	//			 interrupt test			  //
	//------------------------------------//
	DDRD &= ~(1 << DDD2);     // Clear the PD2 pin (Nr. 2)
 124:	52 98       	cbi	0x0a, 2	; 10
	// PD2 (PCINT0 pin) is now an input

	PORTD |= (1 << PORTD2);    // turn On the Pull-up
 126:	5a 9a       	sbi	0x0b, 2	; 11
	// PD2 is now an input with pull-up enabled

	//EICRA |= (1 << ISC11) | (1 << ISC10);   // set INT0 to trigger on ANY logic change
	EICRA = 0b00000011;
 128:	83 e0       	ldi	r24, 0x03	; 3
 12a:	80 93 69 00 	sts	0x0069, r24	; 0x800069 <__TEXT_REGION_LENGTH__+0x700069>
	EIMSK |= (1 << INT0);     // Turns on INT0
 12e:	e8 9a       	sbi	0x1d, 0	; 29
	//------------------------------------//

	//TEST AF PIN
	DDRC |= 1 << 0;
 130:	38 9a       	sbi	0x07, 0	; 7

	//Initializing
	//unsigned char* streng = "000";
	UCSR0B = 0;
 132:	10 92 c1 00 	sts	0x00C1, r1	; 0x8000c1 <__TEXT_REGION_LENGTH__+0x7000c1>
	DDR |= (1<<PINNR);
 136:	20 9a       	sbi	0x04, 0	; 4
	DDR |= (1 << PINNR_2);
 138:	84 b1       	in	r24, 0x04	; 4
 13a:	84 b9       	out	0x04, r24	; 4

	// Global interrupt enable
	sei();
 13c:	78 94       	sei

	while(1)
	{
		//ZEROCROSS TEST
		PORTC |= 1 << 0;
 13e:	40 9a       	sbi	0x08, 0	; 8
	#else
		//round up by default
		__ticks_dc = (uint32_t)(ceil(fabs(__tmp)));
	#endif

	__builtin_avr_delay_cycles(__ticks_dc);
 140:	8f e9       	ldi	r24, 0x9F	; 159
 142:	9f e0       	ldi	r25, 0x0F	; 15
 144:	01 97       	sbiw	r24, 0x01	; 1
 146:	f1 f7       	brne	.-4      	; 0x144 <main+0x20>
 148:	00 c0       	rjmp	.+0      	; 0x14a <main+0x26>
 14a:	00 00       	nop
		_delay_ms(1);
		PORTC &= ~(1 << 0);
 14c:	40 98       	cbi	0x08, 0	; 8
 14e:	8f e9       	ldi	r24, 0x9F	; 159
 150:	9f e0       	ldi	r25, 0x0F	; 15
 152:	01 97       	sbiw	r24, 0x01	; 1
 154:	f1 f7       	brne	.-4      	; 0x152 <main+0x2e>
 156:	00 c0       	rjmp	.+0      	; 0x158 <main+0x34>
 158:	00 00       	nop
 15a:	f1 cf       	rjmp	.-30     	; 0x13e <main+0x1a>

0000015c <__vector_1>:
	}
}

// Interrupt service routine for INT0 (Er INT3 for Atmega 2560)
ISR (INT0_vect)
{
 15c:	1f 92       	push	r1
 15e:	0f 92       	push	r0
 160:	0f b6       	in	r0, 0x3f	; 63
 162:	0f 92       	push	r0
 164:	11 24       	eor	r1, r1
 166:	0b b6       	in	r0, 0x3b	; 59
 168:	0f 92       	push	r0
 16a:	2f 93       	push	r18
 16c:	3f 93       	push	r19
 16e:	4f 93       	push	r20
 170:	5f 93       	push	r21
 172:	6f 93       	push	r22
 174:	7f 93       	push	r23
 176:	8f 93       	push	r24
 178:	9f 93       	push	r25
 17a:	af 93       	push	r26
 17c:	bf 93       	push	r27
 17e:	ef 93       	push	r30
 180:	ff 93       	push	r31
	// Test Write
	SendCharSW('a');
 182:	81 e6       	ldi	r24, 0x61	; 97

	// Test Read
	karakter = ReadCharSW();
 184:	16 d0       	rcall	.+44     	; 0x1b2 <SendCharSW>
 186:	2e d0       	rcall	.+92     	; 0x1e4 <ReadCharSW>
 188:	80 93 00 02 	sts	0x0200, r24	; 0x800200 <__data_start>
 18c:	ff 91       	pop	r31
 18e:	ef 91       	pop	r30
 190:	bf 91       	pop	r27
 192:	af 91       	pop	r26
 194:	9f 91       	pop	r25
 196:	8f 91       	pop	r24
 198:	7f 91       	pop	r23
 19a:	6f 91       	pop	r22
 19c:	5f 91       	pop	r21
 19e:	4f 91       	pop	r20
 1a0:	3f 91       	pop	r19
 1a2:	2f 91       	pop	r18
 1a4:	0f 90       	pop	r0
 1a6:	0b be       	out	0x3b, r0	; 59
 1a8:	0f 90       	pop	r0
 1aa:	0f be       	out	0x3f, r0	; 63
 1ac:	0f 90       	pop	r0
 1ae:	1f 90       	pop	r1
 1b0:	18 95       	reti

000001b2 <SendCharSW>:
{
	// Main-loop: Toggle LED7 hvert sekund
	unsigned char i;
	unsigned char x = Tegn;
	// Start bit
	PORT &= ~(1<<PINNR);
 1b2:	28 98       	cbi	0x05, 0	; 5
	#else
		//round up by default
		__ticks_dc = (uint32_t)(ceil(fabs(__tmp)));
	#endif

	__builtin_avr_delay_cycles(__ticks_dc);
 1b4:	2a e2       	ldi	r18, 0x2A	; 42
 1b6:	2a 95       	dec	r18
 1b8:	f1 f7       	brne	.-4      	; 0x1b6 <SendCharSW+0x4>
 1ba:	00 c0       	rjmp	.+0      	; 0x1bc <SendCharSW+0xa>
 1bc:	98 e0       	ldi	r25, 0x08	; 8
	_delay_us(NO_us);
	// 8 data bits (LSB first)
	for (i = 0; i<8; i++)
	{
		if(x & 0b00000001)
 1be:	80 ff       	sbrs	r24, 0
 1c0:	02 c0       	rjmp	.+4      	; 0x1c6 <SendCharSW+0x14>
		PORT |= (1<<PINNR);
 1c2:	28 9a       	sbi	0x05, 0	; 5
 1c4:	01 c0       	rjmp	.+2      	; 0x1c8 <SendCharSW+0x16>
		else
		PORT &= ~(1<<PINNR);
 1c6:	28 98       	cbi	0x05, 0	; 5
 1c8:	2a e2       	ldi	r18, 0x2A	; 42
 1ca:	2a 95       	dec	r18
 1cc:	f1 f7       	brne	.-4      	; 0x1ca <SendCharSW+0x18>
 1ce:	00 c0       	rjmp	.+0      	; 0x1d0 <SendCharSW+0x1e>
		_delay_us(NO_us);
		x = x>>1;
 1d0:	86 95       	lsr	r24
 1d2:	91 50       	subi	r25, 0x01	; 1
	unsigned char x = Tegn;
	// Start bit
	PORT &= ~(1<<PINNR);
	_delay_us(NO_us);
	// 8 data bits (LSB first)
	for (i = 0; i<8; i++)
 1d4:	a1 f7       	brne	.-24     	; 0x1be <SendCharSW+0xc>
		else
		PORT &= ~(1<<PINNR);
		_delay_us(NO_us);
		x = x>>1;
	}
	PORT |= (1<<PINNR);
 1d6:	28 9a       	sbi	0x05, 0	; 5
 1d8:	8a e2       	ldi	r24, 0x2A	; 42
 1da:	8a 95       	dec	r24
 1dc:	f1 f7       	brne	.-4      	; 0x1da <SendCharSW+0x28>
 1de:	00 c0       	rjmp	.+0      	; 0x1e0 <SendCharSW+0x2e>
	_delay_us(NO_us);
	//Test ###DUNNO what the stopbit is###
	PORT &= ~(1<<PINNR);
 1e0:	28 98       	cbi	0x05, 0	; 5
 1e2:	08 95       	ret

000001e4 <ReadCharSW>:
 1e4:	8a e2       	ldi	r24, 0x2A	; 42
 1e6:	8a 95       	dec	r24
 1e8:	f1 f7       	brne	.-4      	; 0x1e6 <ReadCharSW+0x2>
 1ea:	00 c0       	rjmp	.+0      	; 0x1ec <ReadCharSW+0x8>
 1ec:	88 e0       	ldi	r24, 0x08	; 8
 1ee:	9a e2       	ldi	r25, 0x2A	; 42
 1f0:	9a 95       	dec	r25
 1f2:	f1 f7       	brne	.-4      	; 0x1f0 <ReadCharSW+0xc>
 1f4:	00 c0       	rjmp	.+0      	; 0x1f6 <ReadCharSW+0x12>
 1f6:	81 50       	subi	r24, 0x01	; 1
	
	//STARTBIT
	if (PINNR_2 != 0);
	{
		//Data
		for (i = 8; i > 0; --i)
 1f8:	d1 f7       	brne	.-12     	; 0x1ee <ReadCharSW+0xa>
 1fa:	8a e2       	ldi	r24, 0x2A	; 42
 1fc:	8a 95       	dec	r24
 1fe:	f1 f7       	brne	.-4      	; 0x1fc <ReadCharSW+0x18>
 200:	00 c0       	rjmp	.+0      	; 0x202 <ReadCharSW+0x1e>
	if (PINNR_2 == 0)
	{
		_delay_us(NO_us);
	}
	_delay_us(NO_us);
}
 202:	08 95       	ret

00000204 <__vector_20>:
	  TCNT1 = (0xFFFF-15625);
	  TIMSK1 |= 0b00000001;
}

 ISR(TIMER1_OVF_vect)
 {
 204:	1f 92       	push	r1
 206:	0f 92       	push	r0
 208:	0f b6       	in	r0, 0x3f	; 63
 20a:	0f 92       	push	r0
 20c:	11 24       	eor	r1, r1
 20e:	0b b6       	in	r0, 0x3b	; 59
 210:	0f 92       	push	r0
 212:	2f 93       	push	r18
 214:	8f 93       	push	r24
 216:	9f 93       	push	r25
 218:	ef 93       	push	r30
 21a:	ff 93       	push	r31
	 // Tæller ctr_ op hvert sekund.
	 ctr_++;
 21c:	80 91 04 02 	lds	r24, 0x0204	; 0x800204 <ctr_>
 220:	90 91 05 02 	lds	r25, 0x0205	; 0x800205 <ctr_+0x1>
 224:	01 96       	adiw	r24, 0x01	; 1
 226:	90 93 05 02 	sts	0x0205, r25	; 0x800205 <ctr_+0x1>
 22a:	80 93 04 02 	sts	0x0204, r24	; 0x800204 <ctr_>
	 //sætter tcnt1 til krævet værdi for 1s delay
	 TCNT1 = (0xFFFF-15625);
 22e:	86 ef       	ldi	r24, 0xF6	; 246
 230:	92 ec       	ldi	r25, 0xC2	; 194
 232:	90 93 85 00 	sts	0x0085, r25	; 0x800085 <__TEXT_REGION_LENGTH__+0x700085>
 236:	80 93 84 00 	sts	0x0084, r24	; 0x800084 <__TEXT_REGION_LENGTH__+0x700084>

	 if (ctr_ == 1800) //overflow 1 gang i sekundet
 23a:	80 91 04 02 	lds	r24, 0x0204	; 0x800204 <ctr_>
 23e:	90 91 05 02 	lds	r25, 0x0205	; 0x800205 <ctr_+0x1>
 242:	88 30       	cpi	r24, 0x08	; 8
 244:	97 40       	sbci	r25, 0x07	; 7
 246:	71 f4       	brne	.+28     	; 0x264 <__vector_20+0x60>
	 {
		timerStatus_ = '1';
 248:	81 e3       	ldi	r24, 0x31	; 49
 24a:	90 e0       	ldi	r25, 0x00	; 0
 24c:	90 93 03 02 	sts	0x0203, r25	; 0x800203 <__data_end+0x1>
 250:	80 93 02 02 	sts	0x0202, r24	; 0x800202 <__data_end>
		ctr_ = 0;
 254:	10 92 05 02 	sts	0x0205, r1	; 0x800205 <ctr_+0x1>
 258:	10 92 04 02 	sts	0x0204, r1	; 0x800204 <ctr_>
		TIMSK1 &= 0;
 25c:	ef e6       	ldi	r30, 0x6F	; 111
 25e:	f0 e0       	ldi	r31, 0x00	; 0
 260:	80 81       	ld	r24, Z
 262:	10 82       	st	Z, r1
	 }
 264:	ff 91       	pop	r31
 266:	ef 91       	pop	r30
 268:	9f 91       	pop	r25
 26a:	8f 91       	pop	r24
 26c:	2f 91       	pop	r18
 26e:	0f 90       	pop	r0
 270:	0b be       	out	0x3b, r0	; 59
 272:	0f 90       	pop	r0
 274:	0f be       	out	0x3f, r0	; 63
 276:	0f 90       	pop	r0
 278:	1f 90       	pop	r1
 27a:	18 95       	reti

0000027c <_exit>:
 27c:	f8 94       	cli

0000027e <__stop_program>:
 27e:	ff cf       	rjmp	.-2      	; 0x27e <__stop_program>
