
LEKTOR_MIKROCONTROLLER.elf:     file format elf32-avr

Sections:
Idx Name          Size      VMA       LMA       File off  Algn
  0 .data         00000008  00800200  00001356  000013ea  2**0
                  CONTENTS, ALLOC, LOAD, DATA
  1 .text         00001356  00000000  00000000  00000094  2**1
                  CONTENTS, ALLOC, LOAD, READONLY, CODE
  2 .bss          0000001e  00800208  00800208  000013f2  2**0
                  ALLOC
  3 .comment      00000030  00000000  00000000  000013f2  2**0
                  CONTENTS, READONLY
  4 .note.gnu.avr.deviceinfo 00000040  00000000  00000000  00001424  2**2
                  CONTENTS, READONLY
  5 .debug_aranges 000001b8  00000000  00000000  00001464  2**0
                  CONTENTS, READONLY, DEBUGGING
  6 .debug_info   00001b28  00000000  00000000  0000161c  2**0
                  CONTENTS, READONLY, DEBUGGING
  7 .debug_abbrev 0000123e  00000000  00000000  00003144  2**0
                  CONTENTS, READONLY, DEBUGGING
  8 .debug_line   00001384  00000000  00000000  00004382  2**0
                  CONTENTS, READONLY, DEBUGGING
  9 .debug_frame  0000033c  00000000  00000000  00005708  2**2
                  CONTENTS, READONLY, DEBUGGING
 10 .debug_str    0000092b  00000000  00000000  00005a44  2**0
                  CONTENTS, READONLY, DEBUGGING
 11 .debug_loc    00000b6e  00000000  00000000  0000636f  2**0
                  CONTENTS, READONLY, DEBUGGING
 12 .debug_ranges 00000178  00000000  00000000  00006edd  2**0
                  CONTENTS, READONLY, DEBUGGING

Disassembly of section .text:

00000000 <__vectors>:
       0:	b9 c0       	rjmp	.+370    	; 0x174 <__ctors_end>
       2:	00 00       	nop
       4:	46 c1       	rjmp	.+652    	; 0x292 <__vector_1>
       6:	00 00       	nop
       8:	d5 c0       	rjmp	.+426    	; 0x1b4 <__bad_interrupt>
       a:	00 00       	nop
       c:	d3 c0       	rjmp	.+422    	; 0x1b4 <__bad_interrupt>
       e:	00 00       	nop
      10:	d1 c0       	rjmp	.+418    	; 0x1b4 <__bad_interrupt>
      12:	00 00       	nop
      14:	cf c0       	rjmp	.+414    	; 0x1b4 <__bad_interrupt>
      16:	00 00       	nop
      18:	cd c0       	rjmp	.+410    	; 0x1b4 <__bad_interrupt>
      1a:	00 00       	nop
      1c:	cb c0       	rjmp	.+406    	; 0x1b4 <__bad_interrupt>
      1e:	00 00       	nop
      20:	c9 c0       	rjmp	.+402    	; 0x1b4 <__bad_interrupt>
      22:	00 00       	nop
      24:	c7 c0       	rjmp	.+398    	; 0x1b4 <__bad_interrupt>
      26:	00 00       	nop
      28:	c5 c0       	rjmp	.+394    	; 0x1b4 <__bad_interrupt>
      2a:	00 00       	nop
      2c:	c3 c0       	rjmp	.+390    	; 0x1b4 <__bad_interrupt>
      2e:	00 00       	nop
      30:	c1 c0       	rjmp	.+386    	; 0x1b4 <__bad_interrupt>
      32:	00 00       	nop
      34:	bf c0       	rjmp	.+382    	; 0x1b4 <__bad_interrupt>
      36:	00 00       	nop
      38:	bd c0       	rjmp	.+378    	; 0x1b4 <__bad_interrupt>
      3a:	00 00       	nop
      3c:	bb c0       	rjmp	.+374    	; 0x1b4 <__bad_interrupt>
      3e:	00 00       	nop
      40:	b9 c0       	rjmp	.+370    	; 0x1b4 <__bad_interrupt>
      42:	00 00       	nop
      44:	b7 c0       	rjmp	.+366    	; 0x1b4 <__bad_interrupt>
      46:	00 00       	nop
      48:	b5 c0       	rjmp	.+362    	; 0x1b4 <__bad_interrupt>
      4a:	00 00       	nop
      4c:	b3 c0       	rjmp	.+358    	; 0x1b4 <__bad_interrupt>
      4e:	00 00       	nop
      50:	f5 c3       	rjmp	.+2026   	; 0x83c <__vector_20>
      52:	00 00       	nop
      54:	af c0       	rjmp	.+350    	; 0x1b4 <__bad_interrupt>
      56:	00 00       	nop
      58:	ad c0       	rjmp	.+346    	; 0x1b4 <__bad_interrupt>
      5a:	00 00       	nop
      5c:	ab c0       	rjmp	.+342    	; 0x1b4 <__bad_interrupt>
      5e:	00 00       	nop
      60:	a9 c0       	rjmp	.+338    	; 0x1b4 <__bad_interrupt>
      62:	00 00       	nop
      64:	a7 c0       	rjmp	.+334    	; 0x1b4 <__bad_interrupt>
      66:	00 00       	nop
      68:	a5 c0       	rjmp	.+330    	; 0x1b4 <__bad_interrupt>
      6a:	00 00       	nop
      6c:	a3 c0       	rjmp	.+326    	; 0x1b4 <__bad_interrupt>
      6e:	00 00       	nop
      70:	a1 c0       	rjmp	.+322    	; 0x1b4 <__bad_interrupt>
      72:	00 00       	nop
      74:	9f c0       	rjmp	.+318    	; 0x1b4 <__bad_interrupt>
      76:	00 00       	nop
      78:	9d c0       	rjmp	.+314    	; 0x1b4 <__bad_interrupt>
      7a:	00 00       	nop
      7c:	9b c0       	rjmp	.+310    	; 0x1b4 <__bad_interrupt>
      7e:	00 00       	nop
      80:	99 c0       	rjmp	.+306    	; 0x1b4 <__bad_interrupt>
      82:	00 00       	nop
      84:	97 c0       	rjmp	.+302    	; 0x1b4 <__bad_interrupt>
      86:	00 00       	nop
      88:	95 c0       	rjmp	.+298    	; 0x1b4 <__bad_interrupt>
      8a:	00 00       	nop
      8c:	93 c0       	rjmp	.+294    	; 0x1b4 <__bad_interrupt>
      8e:	00 00       	nop
      90:	91 c0       	rjmp	.+290    	; 0x1b4 <__bad_interrupt>
      92:	00 00       	nop
      94:	8f c0       	rjmp	.+286    	; 0x1b4 <__bad_interrupt>
      96:	00 00       	nop
      98:	8d c0       	rjmp	.+282    	; 0x1b4 <__bad_interrupt>
      9a:	00 00       	nop
      9c:	8b c0       	rjmp	.+278    	; 0x1b4 <__bad_interrupt>
      9e:	00 00       	nop
      a0:	89 c0       	rjmp	.+274    	; 0x1b4 <__bad_interrupt>
      a2:	00 00       	nop
      a4:	87 c0       	rjmp	.+270    	; 0x1b4 <__bad_interrupt>
      a6:	00 00       	nop
      a8:	85 c0       	rjmp	.+266    	; 0x1b4 <__bad_interrupt>
      aa:	00 00       	nop
      ac:	83 c0       	rjmp	.+262    	; 0x1b4 <__bad_interrupt>
      ae:	00 00       	nop
      b0:	81 c0       	rjmp	.+258    	; 0x1b4 <__bad_interrupt>
      b2:	00 00       	nop
      b4:	7f c0       	rjmp	.+254    	; 0x1b4 <__bad_interrupt>
      b6:	00 00       	nop
      b8:	7d c0       	rjmp	.+250    	; 0x1b4 <__bad_interrupt>
      ba:	00 00       	nop
      bc:	7b c0       	rjmp	.+246    	; 0x1b4 <__bad_interrupt>
      be:	00 00       	nop
      c0:	79 c0       	rjmp	.+242    	; 0x1b4 <__bad_interrupt>
      c2:	00 00       	nop
      c4:	77 c0       	rjmp	.+238    	; 0x1b4 <__bad_interrupt>
      c6:	00 00       	nop
      c8:	75 c0       	rjmp	.+234    	; 0x1b4 <__bad_interrupt>
      ca:	00 00       	nop
      cc:	73 c0       	rjmp	.+230    	; 0x1b4 <__bad_interrupt>
      ce:	00 00       	nop
      d0:	71 c0       	rjmp	.+226    	; 0x1b4 <__bad_interrupt>
      d2:	00 00       	nop
      d4:	6f c0       	rjmp	.+222    	; 0x1b4 <__bad_interrupt>
      d6:	00 00       	nop
      d8:	6d c0       	rjmp	.+218    	; 0x1b4 <__bad_interrupt>
      da:	00 00       	nop
      dc:	6b c0       	rjmp	.+214    	; 0x1b4 <__bad_interrupt>
      de:	00 00       	nop
      e0:	69 c0       	rjmp	.+210    	; 0x1b4 <__bad_interrupt>
      e2:	00 00       	nop
      e4:	63 02       	muls	r22, r19
      e6:	6f 02       	muls	r22, r31
      e8:	7b 02       	muls	r23, r27
      ea:	87 02       	muls	r24, r23
      ec:	93 02       	muls	r25, r19
      ee:	9f 02       	muls	r25, r31
      f0:	ab 02       	muls	r26, r27
      f2:	b7 02       	muls	r27, r23
      f4:	ee 02       	muls	r30, r30
      f6:	c5 02       	muls	r28, r21
      f8:	d3 02       	muls	r29, r19
      fa:	e1 02       	muls	r30, r17
      fc:	ff 02       	muls	r31, r31
      fe:	16 03       	mulsu	r17, r22
     100:	2d 03       	fmul	r18, r21
     102:	44 03       	mulsu	r20, r20
     104:	5b 03       	fmul	r21, r19
     106:	72 03       	mulsu	r23, r18
     108:	89 03       	fmulsu	r16, r17
     10a:	a0 03       	fmuls	r18, r16
     10c:	00 04       	cpc	r0, r0
     10e:	b8 03       	fmulsu	r19, r16
     110:	d0 03       	fmuls	r21, r16
     112:	e8 03       	fmulsu	r22, r16
     114:	99 04       	cpc	r9, r9
     116:	a5 04       	cpc	r10, r5
     118:	b1 04       	cpc	r11, r1
     11a:	bd 04       	cpc	r11, r13
     11c:	c9 04       	cpc	r12, r9
     11e:	d5 04       	cpc	r13, r5
     120:	e1 04       	cpc	r14, r1
     122:	ed 04       	cpc	r14, r13
     124:	24 05       	cpc	r18, r4
     126:	fb 04       	cpc	r15, r11
     128:	09 05       	cpc	r16, r9
     12a:	17 05       	cpc	r17, r7
     12c:	35 05       	cpc	r19, r5
     12e:	4c 05       	cpc	r20, r12
     130:	63 05       	cpc	r22, r3
     132:	7a 05       	cpc	r23, r10
     134:	91 05       	cpc	r25, r1
     136:	a8 05       	cpc	r26, r8
     138:	bf 05       	cpc	r27, r15
     13a:	d6 05       	cpc	r29, r6
     13c:	36 06       	cpc	r3, r22
     13e:	ee 05       	cpc	r30, r14
     140:	06 06       	cpc	r0, r22
     142:	1e 06       	cpc	r1, r30
     144:	5e 06       	cpc	r5, r30
     146:	6b 06       	cpc	r6, r27
     148:	78 06       	cpc	r7, r24
     14a:	85 06       	cpc	r8, r21
     14c:	92 06       	cpc	r9, r18
     14e:	9f 06       	cpc	r9, r31
     150:	ac 06       	cpc	r10, r28
     152:	b9 06       	cpc	r11, r25
     154:	f4 06       	cpc	r15, r20
     156:	c8 06       	cpc	r12, r24
     158:	d7 06       	cpc	r13, r23
     15a:	e6 06       	cpc	r14, r22
     15c:	06 07       	cpc	r16, r22
     15e:	23 07       	cpc	r18, r19
     160:	40 07       	cpc	r20, r16
     162:	5d 07       	cpc	r21, r29
     164:	7a 07       	cpc	r23, r26
     166:	97 07       	cpc	r25, r23
     168:	b4 07       	cpc	r27, r20
     16a:	d1 07       	cpc	r29, r17
     16c:	54 08       	sbc	r5, r4
     16e:	f2 07       	cpc	r31, r18
     170:	13 08       	sbc	r1, r3
     172:	34 08       	sbc	r3, r4

00000174 <__ctors_end>:
     174:	11 24       	eor	r1, r1
     176:	1f be       	out	0x3f, r1	; 63
     178:	cf ef       	ldi	r28, 0xFF	; 255
     17a:	d1 e2       	ldi	r29, 0x21	; 33
     17c:	de bf       	out	0x3e, r29	; 62
     17e:	cd bf       	out	0x3d, r28	; 61
     180:	00 e0       	ldi	r16, 0x00	; 0
     182:	0c bf       	out	0x3c, r16	; 60

00000184 <__do_copy_data>:
     184:	12 e0       	ldi	r17, 0x02	; 2
     186:	a0 e0       	ldi	r26, 0x00	; 0
     188:	b2 e0       	ldi	r27, 0x02	; 2
     18a:	e6 e5       	ldi	r30, 0x56	; 86
     18c:	f3 e1       	ldi	r31, 0x13	; 19
     18e:	00 e0       	ldi	r16, 0x00	; 0
     190:	0b bf       	out	0x3b, r16	; 59
     192:	02 c0       	rjmp	.+4      	; 0x198 <__do_copy_data+0x14>
     194:	07 90       	elpm	r0, Z+
     196:	0d 92       	st	X+, r0
     198:	a8 30       	cpi	r26, 0x08	; 8
     19a:	b1 07       	cpc	r27, r17
     19c:	d9 f7       	brne	.-10     	; 0x194 <__do_copy_data+0x10>

0000019e <__do_clear_bss>:
     19e:	22 e0       	ldi	r18, 0x02	; 2
     1a0:	a8 e0       	ldi	r26, 0x08	; 8
     1a2:	b2 e0       	ldi	r27, 0x02	; 2
     1a4:	01 c0       	rjmp	.+2      	; 0x1a8 <.do_clear_bss_start>

000001a6 <.do_clear_bss_loop>:
     1a6:	1d 92       	st	X+, r1

000001a8 <.do_clear_bss_start>:
     1a8:	a6 32       	cpi	r26, 0x26	; 38
     1aa:	b2 07       	cpc	r27, r18
     1ac:	e1 f7       	brne	.-8      	; 0x1a6 <.do_clear_bss_loop>
     1ae:	03 d0       	rcall	.+6      	; 0x1b6 <main>
     1b0:	0c 94 a9 09 	jmp	0x1352	; 0x1352 <_exit>

000001b4 <__bad_interrupt>:
     1b4:	25 cf       	rjmp	.-438    	; 0x0 <__vectors>

000001b6 <main>:
//				 Functions			  //
//------------------------------------//
*/

int main(void)
{
     1b6:	cf 93       	push	r28
     1b8:	df 93       	push	r29
     1ba:	00 d0       	rcall	.+0      	; 0x1bc <main+0x6>
     1bc:	1f 92       	push	r1
     1be:	cd b7       	in	r28, 0x3d	; 61
     1c0:	de b7       	in	r29, 0x3e	; 62
	initSensor('B', 2);
     1c2:	62 e0       	ldi	r22, 0x02	; 2
     1c4:	70 e0       	ldi	r23, 0x00	; 0
     1c6:	82 e4       	ldi	r24, 0x42	; 66
     1c8:	58 d1       	rcall	.+688    	; 0x47a <initSensor>
	initToggleSwitch('B', 3);
     1ca:	63 e0       	ldi	r22, 0x03	; 3
     1cc:	70 e0       	ldi	r23, 0x00	; 0
     1ce:	82 e4       	ldi	r24, 0x42	; 66
     1d0:	8a d3       	rcall	.+1812   	; 0x8e6 <initToggleSwitch>
	initToggleSwitchLED('B', 4);
     1d2:	64 e0       	ldi	r22, 0x04	; 4
     1d4:	70 e0       	ldi	r23, 0x00	; 0
     1d6:	82 e4       	ldi	r24, 0x42	; 66
	initZCDetector();
     1d8:	4b d5       	rcall	.+2710   	; 0xc70 <initToggleSwitchLED>
     1da:	67 d7       	rcall	.+3790   	; 0x10aa <initZCDetector>
	
	//Streng med data som skal sendes.
	unsigned char streng[4] = {LEKTORID1, LEKTORID2, COMMAND, '\0'};
     1dc:	81 e4       	ldi	r24, 0x41	; 65
     1de:	89 83       	std	Y+1, r24	; 0x01
     1e0:	8a 83       	std	Y+2, r24	; 0x02
     1e2:	80 91 08 02 	lds	r24, 0x0208	; 0x800208 <__data_end>
     1e6:	8b 83       	std	Y+3, r24	; 0x03
     1e8:	1c 82       	std	Y+4, r1	; 0x04
	
	// Global interrupt enable
	sei();
     1ea:	78 94       	sei
			if (returnerTimerStatus() == 0)
			{
			setTimer();
			}
			skiftLEDTilstand_Optaget(toggleSwitchStatus());
			COMMAND = 'O';					// O indikerer at lektor har benyttet ToggleSwitch (=Optaget)
     1ec:	1f e4       	ldi	r17, 0x4F	; 79
			COMMAND = 'V';					// V indikerer at lektor er væk!
		}
		else if (lektorOptaget_ == '0' && lektortilStede_ == '1')
		{
			skiftLEDTilstand_PaaKontor(kontorStatus());
			COMMAND = 'T';					// T Indikerer at lektor er tilstede
     1ee:	0f 2e       	mov	r0, r31
     1f0:	f4 e5       	ldi	r31, 0x54	; 84
     1f2:	ff 2e       	mov	r15, r31
     1f4:	f0 2d       	mov	r31, r0
	{

		if (lektorOptaget_ == '0' && lektortilStede_ == '0')
		{
			skiftLEDTilstand_PaaKontor(kontorStatus());
			COMMAND = 'V';					// V indikerer at lektor er væk!
     1f6:	06 e5       	ldi	r16, 0x56	; 86
	

	while(1)
	{

		if (lektorOptaget_ == '0' && lektortilStede_ == '0')
     1f8:	80 91 15 02 	lds	r24, 0x0215	; 0x800215 <lektorOptaget_>
     1fc:	80 33       	cpi	r24, 0x30	; 48
     1fe:	49 f4       	brne	.+18     	; 0x212 <main+0x5c>
     200:	80 91 12 02 	lds	r24, 0x0212	; 0x800212 <lektortilStede_>
		{
			skiftLEDTilstand_PaaKontor(kontorStatus());
     204:	80 33       	cpi	r24, 0x30	; 48
     206:	29 f4       	brne	.+10     	; 0x212 <main+0x5c>
     208:	ea d1       	rcall	.+980    	; 0x5de <kontorStatus>
			COMMAND = 'V';					// V indikerer at lektor er væk!
     20a:	11 d1       	rcall	.+546    	; 0x42e <skiftLEDTilstand_PaaKontor>
     20c:	00 93 08 02 	sts	0x0208, r16	; 0x800208 <__data_end>
		}
		else if (lektorOptaget_ == '0' && lektortilStede_ == '1')
     210:	2a c0       	rjmp	.+84     	; 0x266 <main+0xb0>
     212:	80 91 15 02 	lds	r24, 0x0215	; 0x800215 <lektorOptaget_>
     216:	80 33       	cpi	r24, 0x30	; 48
     218:	49 f4       	brne	.+18     	; 0x22c <main+0x76>
     21a:	80 91 12 02 	lds	r24, 0x0212	; 0x800212 <lektortilStede_>
		{
			skiftLEDTilstand_PaaKontor(kontorStatus());
     21e:	81 33       	cpi	r24, 0x31	; 49
     220:	29 f4       	brne	.+10     	; 0x22c <main+0x76>
     222:	dd d1       	rcall	.+954    	; 0x5de <kontorStatus>
			COMMAND = 'T';					// T Indikerer at lektor er tilstede
     224:	04 d1       	rcall	.+520    	; 0x42e <skiftLEDTilstand_PaaKontor>
     226:	f0 92 08 02 	sts	0x0208, r15	; 0x800208 <__data_end>
		}
		else if (lektorOptaget_ == '1' && lektortilStede_ == '0')
     22a:	1d c0       	rjmp	.+58     	; 0x266 <main+0xb0>
     22c:	80 91 15 02 	lds	r24, 0x0215	; 0x800215 <lektorOptaget_>
     230:	81 33       	cpi	r24, 0x31	; 49
     232:	49 f4       	brne	.+18     	; 0x246 <main+0x90>
		{
			skiftLEDTilstand_Optaget(toggleSwitchStatus());
     234:	80 91 12 02 	lds	r24, 0x0212	; 0x800212 <lektortilStede_>
     238:	80 33       	cpi	r24, 0x30	; 48
     23a:	29 f4       	brne	.+10     	; 0x246 <main+0x90>
			COMMAND = 'O';					// O indikerer at lektor har benyttet ToggleSwitch (=Optaget)
     23c:	06 d4       	rcall	.+2060   	; 0xa4a <toggleSwitchStatus>
     23e:	f0 d0       	rcall	.+480    	; 0x420 <skiftLEDTilstand_Optaget>

		}
		else if (lektorOptaget_ == '1' && lektortilStede_ == '1')
     240:	10 93 08 02 	sts	0x0208, r17	; 0x800208 <__data_end>
     244:	10 c0       	rjmp	.+32     	; 0x266 <main+0xb0>
     246:	80 91 15 02 	lds	r24, 0x0215	; 0x800215 <lektorOptaget_>
		{
			if (returnerTimerStatus() == 0)
     24a:	81 33       	cpi	r24, 0x31	; 49
     24c:	61 f4       	brne	.+24     	; 0x266 <main+0xb0>
     24e:	80 91 12 02 	lds	r24, 0x0212	; 0x800212 <lektortilStede_>
			{
			setTimer();
     252:	81 33       	cpi	r24, 0x31	; 49
			}
			skiftLEDTilstand_Optaget(toggleSwitchStatus());
     254:	41 f4       	brne	.+16     	; 0x266 <main+0xb0>
     256:	d6 d2       	rcall	.+1452   	; 0x804 <returnerTimerStatus>
     258:	89 2b       	or	r24, r25
     25a:	09 f4       	brne	.+2      	; 0x25e <main+0xa8>
			COMMAND = 'O';					// O indikerer at lektor har benyttet ToggleSwitch (=Optaget)
     25c:	d8 d2       	rcall	.+1456   	; 0x80e <setTimer>
     25e:	f5 d3       	rcall	.+2026   	; 0xa4a <toggleSwitchStatus>
		}

		streng[2] = COMMAND;
     260:	df d0       	rcall	.+446    	; 0x420 <skiftLEDTilstand_Optaget>
     262:	10 93 08 02 	sts	0x0208, r17	; 0x800208 <__data_end>


		konverteretStreng = stringToManchester(streng);
     266:	80 91 08 02 	lds	r24, 0x0208	; 0x800208 <__data_end>
     26a:	8b 83       	std	Y+3, r24	; 0x03
     26c:	ce 01       	movw	r24, r28
     26e:	01 96       	adiw	r24, 0x01	; 1
     270:	4b d0       	rcall	.+150    	; 0x308 <stringToManchester>
     272:	90 93 1b 02 	sts	0x021B, r25	; 0x80021b <konverteretStreng+0x1>
		karakter = konverteretStreng[currentChar];
     276:	80 93 1a 02 	sts	0x021A, r24	; 0x80021a <konverteretStreng>
     27a:	20 91 09 02 	lds	r18, 0x0209	; 0x800209 <currentChar>
     27e:	30 91 0a 02 	lds	r19, 0x020A	; 0x80020a <currentChar+0x1>
     282:	fc 01       	movw	r30, r24
     284:	e2 0f       	add	r30, r18
     286:	f3 1f       	adc	r31, r19
		freePtr();
     288:	80 81       	ld	r24, Z
     28a:	80 93 0b 02 	sts	0x020B, r24	; 0x80020b <karakter>
     28e:	36 d0       	rcall	.+108    	; 0x2fc <freePtr>
     290:	b3 cf       	rjmp	.-154    	; 0x1f8 <main+0x42>

00000292 <__vector_1>:
	return 0;
}

// Interrupt service routine for INT0 (Er INT3 for Atmega 2560)
ISR(INT0_vect)
{
     292:	1f 92       	push	r1
     294:	0f 92       	push	r0
     296:	0f b6       	in	r0, 0x3f	; 63
     298:	0f 92       	push	r0
     29a:	11 24       	eor	r1, r1
     29c:	0b b6       	in	r0, 0x3b	; 59
     29e:	0f 92       	push	r0
     2a0:	2f 93       	push	r18
     2a2:	3f 93       	push	r19
     2a4:	4f 93       	push	r20
     2a6:	5f 93       	push	r21
     2a8:	6f 93       	push	r22
     2aa:	7f 93       	push	r23
     2ac:	8f 93       	push	r24
     2ae:	9f 93       	push	r25
     2b0:	af 93       	push	r26
     2b2:	bf 93       	push	r27
     2b4:	ef 93       	push	r30
     2b6:	ff 93       	push	r31
	//_delay_ms(2);
	T2Delay_us(8);
     2b8:	88 e0       	ldi	r24, 0x08	; 8
     2ba:	90 e0       	ldi	r25, 0x00	; 0
     2bc:	fb d2       	rcall	.+1526   	; 0x8b4 <T2Delay_us>
	sendCharSW(karakter);
     2be:	80 91 0b 02 	lds	r24, 0x020B	; 0x80020b <karakter>
     2c2:	bd d0       	rcall	.+378    	; 0x43e <sendCharSW>
	currentChar++;
     2c4:	80 91 09 02 	lds	r24, 0x0209	; 0x800209 <currentChar>
     2c8:	90 91 0a 02 	lds	r25, 0x020A	; 0x80020a <currentChar+0x1>
     2cc:	01 96       	adiw	r24, 0x01	; 1
     2ce:	90 93 0a 02 	sts	0x020A, r25	; 0x80020a <currentChar+0x1>
     2d2:	80 93 09 02 	sts	0x0209, r24	; 0x800209 <currentChar>
     2d6:	ff 91       	pop	r31
     2d8:	ef 91       	pop	r30
     2da:	bf 91       	pop	r27
     2dc:	af 91       	pop	r26
     2de:	9f 91       	pop	r25
     2e0:	8f 91       	pop	r24
     2e2:	7f 91       	pop	r23
     2e4:	6f 91       	pop	r22
     2e6:	5f 91       	pop	r21
     2e8:	4f 91       	pop	r20
     2ea:	3f 91       	pop	r19
     2ec:	2f 91       	pop	r18
     2ee:	0f 90       	pop	r0
     2f0:	0b be       	out	0x3b, r0	; 59
     2f2:	0f 90       	pop	r0
     2f4:	0f be       	out	0x3f, r0	; 63
     2f6:	0f 90       	pop	r0
     2f8:	1f 90       	pop	r1
     2fa:	18 95       	reti

000002fc <freePtr>:
#include <stdlib.h>

static unsigned char * manchesterPtr = 0;

void freePtr(){
	free(manchesterPtr);
     2fc:	80 91 0c 02 	lds	r24, 0x020C	; 0x80020c <manchesterPtr>
     300:	90 91 0d 02 	lds	r25, 0x020D	; 0x80020d <manchesterPtr+0x1>
     304:	96 c7       	rjmp	.+3884   	; 0x1232 <free>
     306:	08 95       	ret

00000308 <stringToManchester>:
}

unsigned char* stringToManchester(unsigned char* toBeConverted)
{
     308:	8f 92       	push	r8
     30a:	9f 92       	push	r9
     30c:	af 92       	push	r10
     30e:	bf 92       	push	r11
     310:	cf 92       	push	r12
     312:	df 92       	push	r13
     314:	ef 92       	push	r14
     316:	ff 92       	push	r15
     318:	0f 93       	push	r16
     31a:	1f 93       	push	r17
     31c:	cf 93       	push	r28
     31e:	df 93       	push	r29
	if (toBeConverted == (unsigned char*)"") return 0;						// Hvis der ikke er input, return 0 
     320:	22 e0       	ldi	r18, 0x02	; 2
     322:	86 30       	cpi	r24, 0x06	; 6
     324:	92 07       	cpc	r25, r18
     326:	09 f4       	brne	.+2      	; 0x32a <stringToManchester+0x22>
     328:	6c c0       	rjmp	.+216    	; 0x402 <__LOCK_REGION_LENGTH__+0x2>
     32a:	ec 01       	movw	r28, r24
	int len = strlen((char*)toBeConverted);											// Lav size_t som kan passes til calloc.
     32c:	fc 01       	movw	r30, r24
     32e:	01 90       	ld	r0, Z+
     330:	00 20       	and	r0, r0
     332:	e9 f7       	brne	.-6      	; 0x32e <stringToManchester+0x26>
     334:	31 97       	sbiw	r30, 0x01	; 1
     336:	e8 1b       	sub	r30, r24
     338:	f9 0b       	sbc	r31, r25
     33a:	5f 01       	movw	r10, r30
	manchesterPtr = (unsigned char *)calloc((((len+1) * 2) + 1), 1);				// Alloker hukommelse
     33c:	cf 01       	movw	r24, r30
     33e:	88 0f       	add	r24, r24
     340:	99 1f       	adc	r25, r25
     342:	61 e0       	ldi	r22, 0x01	; 1
     344:	70 e0       	ldi	r23, 0x00	; 0
     346:	03 96       	adiw	r24, 0x03	; 3
     348:	c2 d6       	rcall	.+3460   	; 0x10ce <calloc>
     34a:	90 93 0d 02 	sts	0x020D, r25	; 0x80020d <manchesterPtr+0x1>
     34e:	80 93 0c 02 	sts	0x020C, r24	; 0x80020c <manchesterPtr>
	int counter = 8;
	int t = 0;

	for (int i = 0; i < len; ++i)
     352:	1a 14       	cp	r1, r10
     354:	1b 04       	cpc	r1, r11
     356:	0c f0       	brlt	.+2      	; 0x35a <stringToManchester+0x52>
     358:	56 c0       	rjmp	.+172    	; 0x406 <__LOCK_REGION_LENGTH__+0x6>
     35a:	7e 01       	movw	r14, r28
     35c:	a0 e0       	ldi	r26, 0x00	; 0
     35e:	b0 e0       	ldi	r27, 0x00	; 0
     360:	60 e0       	ldi	r22, 0x00	; 0
     362:	70 e0       	ldi	r23, 0x00	; 0
     364:	28 e0       	ldi	r18, 0x08	; 8
     366:	30 e0       	ldi	r19, 0x00	; 0
			}
			else
			{
				manchesterPtr[i + t] &= (255 - (0 << counter));
				--counter;
				manchesterPtr[i + t] |= (1 << counter);
     368:	01 e0       	ldi	r16, 0x01	; 1
     36a:	10 e0       	ldi	r17, 0x00	; 0
		{
			--counter;

			if (counter < 0 || counter > 7)
			{
				counter = 7;
     36c:	0f 2e       	mov	r0, r31
     36e:	f7 e0       	ldi	r31, 0x07	; 7
     370:	9f 2e       	mov	r9, r31
     372:	f0 2d       	mov	r31, r0
     374:	81 2c       	mov	r8, r1
	int counter = 8;
	int t = 0;

	for (int i = 0; i < len; ++i)
	{
		unsigned char ch = toBeConverted[i];
     376:	f7 01       	movw	r30, r14
     378:	c1 91       	ld	r28, Z+
     37a:	7f 01       	movw	r14, r30

		for (int j = 7; j >= 0; j--)
     37c:	47 e0       	ldi	r20, 0x07	; 7
     37e:	50 e0       	ldi	r21, 0x00	; 0
			if (counter < 0 || counter > 7)
			{
				counter = 7;
				++t;
			}
			if (ch & (1 << j))
     380:	d0 e0       	ldi	r29, 0x00	; 0
	{
		unsigned char ch = toBeConverted[i];

		for (int j = 7; j >= 0; j--)
		{
			--counter;
     382:	21 50       	subi	r18, 0x01	; 1
     384:	31 09       	sbc	r19, r1

			if (counter < 0 || counter > 7)
     386:	28 30       	cpi	r18, 0x08	; 8
     388:	31 05       	cpc	r19, r1
     38a:	20 f0       	brcs	.+8      	; 0x394 <stringToManchester+0x8c>
			{
				counter = 7;
				++t;
     38c:	6f 5f       	subi	r22, 0xFF	; 255
     38e:	7f 4f       	sbci	r23, 0xFF	; 255
		{
			--counter;

			if (counter < 0 || counter > 7)
			{
				counter = 7;
     390:	29 2d       	mov	r18, r9
     392:	38 2d       	mov	r19, r8
				++t;
			}
			if (ch & (1 << j))
     394:	fe 01       	movw	r30, r28
     396:	04 2e       	mov	r0, r20
     398:	02 c0       	rjmp	.+4      	; 0x39e <stringToManchester+0x96>
     39a:	f5 95       	asr	r31
     39c:	e7 95       	ror	r30
     39e:	0a 94       	dec	r0
     3a0:	e2 f7       	brpl	.-8      	; 0x39a <stringToManchester+0x92>
     3a2:	e0 ff       	sbrs	r30, 0
     3a4:	12 c0       	rjmp	.+36     	; 0x3ca <stringToManchester+0xc2>
			{
				manchesterPtr[i + t] |= 1 << counter;
     3a6:	fb 01       	movw	r30, r22
     3a8:	ea 0f       	add	r30, r26
     3aa:	fb 1f       	adc	r31, r27
     3ac:	e8 0f       	add	r30, r24
     3ae:	f9 1f       	adc	r31, r25
     3b0:	68 01       	movw	r12, r16
     3b2:	02 2e       	mov	r0, r18
     3b4:	02 c0       	rjmp	.+4      	; 0x3ba <stringToManchester+0xb2>
     3b6:	cc 0c       	add	r12, r12
     3b8:	dd 1c       	adc	r13, r13
     3ba:	0a 94       	dec	r0
     3bc:	e2 f7       	brpl	.-8      	; 0x3b6 <stringToManchester+0xae>
     3be:	d0 80       	ld	r13, Z
     3c0:	cd 28       	or	r12, r13
     3c2:	c0 82       	st	Z, r12
				--counter;
     3c4:	21 50       	subi	r18, 0x01	; 1
     3c6:	31 09       	sbc	r19, r1
     3c8:	11 c0       	rjmp	.+34     	; 0x3ec <stringToManchester+0xe4>
				manchesterPtr[i + t] &= (255 - (0 << counter));
			}
			else
			{
				manchesterPtr[i + t] &= (255 - (0 << counter));
     3ca:	fb 01       	movw	r30, r22
     3cc:	ea 0f       	add	r30, r26
     3ce:	fb 1f       	adc	r31, r27
     3d0:	e8 0f       	add	r30, r24
     3d2:	f9 1f       	adc	r31, r25
				--counter;
     3d4:	21 50       	subi	r18, 0x01	; 1
     3d6:	31 09       	sbc	r19, r1
				manchesterPtr[i + t] |= (1 << counter);
     3d8:	68 01       	movw	r12, r16
     3da:	02 2e       	mov	r0, r18
     3dc:	02 c0       	rjmp	.+4      	; 0x3e2 <stringToManchester+0xda>
     3de:	cc 0c       	add	r12, r12
     3e0:	dd 1c       	adc	r13, r13
     3e2:	0a 94       	dec	r0
     3e4:	e2 f7       	brpl	.-8      	; 0x3de <stringToManchester+0xd6>
     3e6:	d0 80       	ld	r13, Z
     3e8:	cd 28       	or	r12, r13
     3ea:	c0 82       	st	Z, r12

	for (int i = 0; i < len; ++i)
	{
		unsigned char ch = toBeConverted[i];

		for (int j = 7; j >= 0; j--)
     3ec:	41 50       	subi	r20, 0x01	; 1
     3ee:	51 09       	sbc	r21, r1
     3f0:	40 f6       	brcc	.-112    	; 0x382 <stringToManchester+0x7a>
				manchesterPtr[i + t] &= (255 - (0 << counter));
				--counter;
				manchesterPtr[i + t] |= (1 << counter);
			}
		}
		--t;															// Find næste character i array af chars som skal konverteres.
     3f2:	61 50       	subi	r22, 0x01	; 1
     3f4:	71 09       	sbc	r23, r1
	int len = strlen((char*)toBeConverted);											// Lav size_t som kan passes til calloc.
	manchesterPtr = (unsigned char *)calloc((((len+1) * 2) + 1), 1);				// Alloker hukommelse
	int counter = 8;
	int t = 0;

	for (int i = 0; i < len; ++i)
     3f6:	11 96       	adiw	r26, 0x01	; 1
     3f8:	aa 16       	cp	r10, r26
     3fa:	bb 06       	cpc	r11, r27
     3fc:	09 f0       	breq	.+2      	; 0x400 <__LOCK_REGION_LENGTH__>
     3fe:	bb cf       	rjmp	.-138    	; 0x376 <stringToManchester+0x6e>
     400:	02 c0       	rjmp	.+4      	; 0x406 <__LOCK_REGION_LENGTH__+0x6>
	free(manchesterPtr);
}

unsigned char* stringToManchester(unsigned char* toBeConverted)
{
	if (toBeConverted == (unsigned char*)"") return 0;						// Hvis der ikke er input, return 0 
     402:	80 e0       	ldi	r24, 0x00	; 0
     404:	90 e0       	ldi	r25, 0x00	; 0
			}
		}
		--t;															// Find næste character i array af chars som skal konverteres.
	}
	return manchesterPtr;													// Returnér manchesterkoden
}
     406:	df 91       	pop	r29
     408:	cf 91       	pop	r28
     40a:	1f 91       	pop	r17
     40c:	0f 91       	pop	r16
     40e:	ff 90       	pop	r15
     410:	ef 90       	pop	r14
     412:	df 90       	pop	r13
     414:	cf 90       	pop	r12
     416:	bf 90       	pop	r11
     418:	af 90       	pop	r10
     41a:	9f 90       	pop	r9
     41c:	8f 90       	pop	r8
     41e:	08 95       	ret

00000420 <skiftLEDTilstand_Optaget>:
#include "RegistrerLektor_Optaget.h"
#include "ToggleSwitchLED.h"
 
 void skiftLEDTilstand_Optaget(char lektorOptaget)
{
	if (lektorOptaget == '0')
     420:	80 33       	cpi	r24, 0x30	; 48
	{
	setToggleSwitchLED('0');
     422:	11 f4       	brne	.+4      	; 0x428 <skiftLEDTilstand_Optaget+0x8>
	}

	else 	
	{
	setToggleSwitchLED('1');
     424:	e2 c4       	rjmp	.+2500   	; 0xdea <setToggleSwitchLED>
     426:	08 95       	ret
     428:	81 e3       	ldi	r24, 0x31	; 49
     42a:	df c4       	rjmp	.+2494   	; 0xdea <setToggleSwitchLED>
     42c:	08 95       	ret

0000042e <skiftLEDTilstand_PaaKontor>:

 //Skift LEDTilstand for ToggleSwitchLED baseret på, hvorvidt lektor er til stede (parametiseret)
 void skiftLEDTilstand_PaaKontor(char tilStede)
 {

	if (tilStede == '1')
     42e:	81 33       	cpi	r24, 0x31	; 49
     430:	19 f4       	brne	.+6      	; 0x438 <skiftLEDTilstand_PaaKontor+0xa>
	{
	setToggleSwitchLED('0');
     432:	80 e3       	ldi	r24, 0x30	; 48
     434:	da c4       	rjmp	.+2484   	; 0xdea <setToggleSwitchLED>
	}
	else
	{
	setToggleSwitchLED('1');
     436:	08 95       	ret
     438:	81 e3       	ldi	r24, 0x31	; 49
     43a:	d7 c4       	rjmp	.+2478   	; 0xdea <setToggleSwitchLED>
     43c:	08 95       	ret

0000043e <sendCharSW>:
{
	// Main-loop: Toggle LED7 hvert sekund
	unsigned char i;
	unsigned char x = Tegn;
	// Start bit
	PORT &= ~(1<<PINNR);
     43e:	28 98       	cbi	0x05, 0	; 5
	#else
		//round up by default
		__ticks_dc = (uint32_t)(ceil(fabs(__tmp)));
	#endif

	__builtin_avr_delay_cycles(__ticks_dc);
     440:	eb e4       	ldi	r30, 0x4B	; 75
     442:	f1 e0       	ldi	r31, 0x01	; 1
     444:	31 97       	sbiw	r30, 0x01	; 1
     446:	f1 f7       	brne	.-4      	; 0x444 <sendCharSW+0x6>
     448:	00 c0       	rjmp	.+0      	; 0x44a <sendCharSW+0xc>
     44a:	00 00       	nop
     44c:	98 e0       	ldi	r25, 0x08	; 8
	_delay_us(NO_us);
	// 8 data bits (LSB first)
	for (i = 0; i<8; i++)
	{
		if(x & 0b00000001)
     44e:	80 ff       	sbrs	r24, 0
     450:	02 c0       	rjmp	.+4      	; 0x456 <sendCharSW+0x18>
			PORT |= (1<<PINNR);
     452:	28 9a       	sbi	0x05, 0	; 5
     454:	01 c0       	rjmp	.+2      	; 0x458 <sendCharSW+0x1a>
		else
			PORT &= ~(1<<PINNR);
     456:	28 98       	cbi	0x05, 0	; 5
     458:	eb e4       	ldi	r30, 0x4B	; 75
     45a:	f1 e0       	ldi	r31, 0x01	; 1
     45c:	31 97       	sbiw	r30, 0x01	; 1
     45e:	f1 f7       	brne	.-4      	; 0x45c <sendCharSW+0x1e>
     460:	00 c0       	rjmp	.+0      	; 0x462 <sendCharSW+0x24>
     462:	00 00       	nop
		_delay_us(NO_us);
		x = x>>1;
     464:	86 95       	lsr	r24
     466:	91 50       	subi	r25, 0x01	; 1
	unsigned char x = Tegn;
	// Start bit
	PORT &= ~(1<<PINNR);
	_delay_us(NO_us);
	// 8 data bits (LSB first)
	for (i = 0; i<8; i++)
     468:	91 f7       	brne	.-28     	; 0x44e <sendCharSW+0x10>
		else
			PORT &= ~(1<<PINNR);
		_delay_us(NO_us);
		x = x>>1;
	}
	PORT |= (1<<PINNR);
     46a:	28 9a       	sbi	0x05, 0	; 5
     46c:	8b e4       	ldi	r24, 0x4B	; 75
     46e:	91 e0       	ldi	r25, 0x01	; 1
     470:	01 97       	sbiw	r24, 0x01	; 1
     472:	f1 f7       	brne	.-4      	; 0x470 <sendCharSW+0x32>
     474:	00 c0       	rjmp	.+0      	; 0x476 <sendCharSW+0x38>
     476:	00 00       	nop
     478:	08 95       	ret

0000047a <initSensor>:
#include "Sensor.h"


void initSensor(char register_, short int port)
{
	if (register_ > 'L' || register_ < 'A' || register_ == 'I')
     47a:	9f eb       	ldi	r25, 0xBF	; 191
     47c:	98 0f       	add	r25, r24
     47e:	9c 30       	cpi	r25, 0x0C	; 12
     480:	10 f4       	brcc	.+4      	; 0x486 <initSensor+0xc>
     482:	89 34       	cpi	r24, 0x49	; 73
     484:	39 f4       	brne	.+14     	; 0x494 <initSensor+0x1a>
	{
		register__ = 'A';
     486:	81 e4       	ldi	r24, 0x41	; 65
     488:	80 93 17 02 	sts	0x0217, r24	; 0x800217 <register__>
	}
	if (port > 7)
     48c:	68 30       	cpi	r22, 0x08	; 8
     48e:	71 05       	cpc	r23, r1
     490:	24 f4       	brge	.+8      	; 0x49a <initSensor+0x20>
     492:	19 c0       	rjmp	.+50     	; 0x4c6 <initSensor+0x4c>
     494:	68 30       	cpi	r22, 0x08	; 8
     496:	71 05       	cpc	r23, r1
     498:	34 f0       	brlt	.+12     	; 0x4a6 <initSensor+0x2c>
	{
		port__ = 1;
     49a:	81 e0       	ldi	r24, 0x01	; 1
     49c:	90 e0       	ldi	r25, 0x00	; 0
     49e:	90 93 20 02 	sts	0x0220, r25	; 0x800220 <port__+0x1>
     4a2:	80 93 1f 02 	sts	0x021F, r24	; 0x80021f <port__>
	}

	switch (register__)
     4a6:	e0 91 17 02 	lds	r30, 0x0217	; 0x800217 <register__>
     4aa:	8e 2f       	mov	r24, r30
     4ac:	90 e0       	ldi	r25, 0x00	; 0
     4ae:	fc 01       	movw	r30, r24
     4b0:	e1 54       	subi	r30, 0x41	; 65
     4b2:	f1 09       	sbc	r31, r1
     4b4:	ec 30       	cpi	r30, 0x0C	; 12
     4b6:	f1 05       	cpc	r31, r1
     4b8:	08 f0       	brcs	.+2      	; 0x4bc <initSensor+0x42>
     4ba:	90 c0       	rjmp	.+288    	; 0x5dc <initSensor+0x162>
     4bc:	88 27       	eor	r24, r24
     4be:	ee 58       	subi	r30, 0x8E	; 142
     4c0:	ff 4f       	sbci	r31, 0xFF	; 255
     4c2:	8f 4f       	sbci	r24, 0xFF	; 255
     4c4:	fc c5       	rjmp	.+3064   	; 0x10be <__tablejump2__>
	{
		case 'A':
		DDRA &= ~(1 << port);
     4c6:	21 b1       	in	r18, 0x01	; 1
     4c8:	81 e0       	ldi	r24, 0x01	; 1
     4ca:	90 e0       	ldi	r25, 0x00	; 0
     4cc:	02 c0       	rjmp	.+4      	; 0x4d2 <initSensor+0x58>
     4ce:	88 0f       	add	r24, r24
     4d0:	99 1f       	adc	r25, r25
     4d2:	6a 95       	dec	r22
     4d4:	e2 f7       	brpl	.-8      	; 0x4ce <initSensor+0x54>
     4d6:	80 95       	com	r24
     4d8:	82 23       	and	r24, r18
     4da:	81 b9       	out	0x01, r24	; 1
		break;
     4dc:	08 95       	ret
		case 'B':
		DDRB &= ~(1 << port);
     4de:	24 b1       	in	r18, 0x04	; 4
     4e0:	81 e0       	ldi	r24, 0x01	; 1
     4e2:	90 e0       	ldi	r25, 0x00	; 0
     4e4:	02 c0       	rjmp	.+4      	; 0x4ea <initSensor+0x70>
     4e6:	88 0f       	add	r24, r24
     4e8:	99 1f       	adc	r25, r25
     4ea:	6a 95       	dec	r22
     4ec:	e2 f7       	brpl	.-8      	; 0x4e6 <initSensor+0x6c>
     4ee:	80 95       	com	r24
     4f0:	82 23       	and	r24, r18
     4f2:	84 b9       	out	0x04, r24	; 4
		break;
     4f4:	08 95       	ret
		case 'C':
		DDRC &= ~(1 << port);
     4f6:	27 b1       	in	r18, 0x07	; 7
     4f8:	81 e0       	ldi	r24, 0x01	; 1
     4fa:	90 e0       	ldi	r25, 0x00	; 0
     4fc:	02 c0       	rjmp	.+4      	; 0x502 <initSensor+0x88>
     4fe:	88 0f       	add	r24, r24
     500:	99 1f       	adc	r25, r25
     502:	6a 95       	dec	r22
     504:	e2 f7       	brpl	.-8      	; 0x4fe <initSensor+0x84>
     506:	80 95       	com	r24
     508:	82 23       	and	r24, r18
     50a:	87 b9       	out	0x07, r24	; 7
		break;
     50c:	08 95       	ret
		case 'D':
		DDRD &= ~(1 << port);
     50e:	2a b1       	in	r18, 0x0a	; 10
     510:	81 e0       	ldi	r24, 0x01	; 1
     512:	90 e0       	ldi	r25, 0x00	; 0
     514:	02 c0       	rjmp	.+4      	; 0x51a <initSensor+0xa0>
     516:	88 0f       	add	r24, r24
     518:	99 1f       	adc	r25, r25
     51a:	6a 95       	dec	r22
     51c:	e2 f7       	brpl	.-8      	; 0x516 <initSensor+0x9c>
     51e:	80 95       	com	r24
     520:	82 23       	and	r24, r18
     522:	8a b9       	out	0x0a, r24	; 10
		break;
     524:	08 95       	ret
		case 'E':
		DDRE &= ~(1 << port);
     526:	2d b1       	in	r18, 0x0d	; 13
     528:	81 e0       	ldi	r24, 0x01	; 1
     52a:	90 e0       	ldi	r25, 0x00	; 0
     52c:	02 c0       	rjmp	.+4      	; 0x532 <initSensor+0xb8>
     52e:	88 0f       	add	r24, r24
     530:	99 1f       	adc	r25, r25
     532:	6a 95       	dec	r22
     534:	e2 f7       	brpl	.-8      	; 0x52e <initSensor+0xb4>
     536:	80 95       	com	r24
     538:	82 23       	and	r24, r18
     53a:	8d b9       	out	0x0d, r24	; 13
		break;
     53c:	08 95       	ret
		case 'F':
		DDRF &= ~(1 << port);
     53e:	20 b3       	in	r18, 0x10	; 16
     540:	81 e0       	ldi	r24, 0x01	; 1
     542:	90 e0       	ldi	r25, 0x00	; 0
     544:	02 c0       	rjmp	.+4      	; 0x54a <initSensor+0xd0>
     546:	88 0f       	add	r24, r24
     548:	99 1f       	adc	r25, r25
     54a:	6a 95       	dec	r22
     54c:	e2 f7       	brpl	.-8      	; 0x546 <initSensor+0xcc>
     54e:	80 95       	com	r24
     550:	82 23       	and	r24, r18
     552:	80 bb       	out	0x10, r24	; 16
		break;
     554:	08 95       	ret
		case 'G':
		DDRG &= ~(1 << port);
     556:	23 b3       	in	r18, 0x13	; 19
     558:	81 e0       	ldi	r24, 0x01	; 1
     55a:	90 e0       	ldi	r25, 0x00	; 0
     55c:	02 c0       	rjmp	.+4      	; 0x562 <initSensor+0xe8>
     55e:	88 0f       	add	r24, r24
     560:	99 1f       	adc	r25, r25
     562:	6a 95       	dec	r22
     564:	e2 f7       	brpl	.-8      	; 0x55e <initSensor+0xe4>
     566:	80 95       	com	r24
     568:	82 23       	and	r24, r18
     56a:	83 bb       	out	0x13, r24	; 19
		break;
     56c:	08 95       	ret
		case 'H':
		DDRH &= ~(1 << port);
     56e:	e1 e0       	ldi	r30, 0x01	; 1
     570:	f1 e0       	ldi	r31, 0x01	; 1
     572:	20 81       	ld	r18, Z
     574:	81 e0       	ldi	r24, 0x01	; 1
     576:	90 e0       	ldi	r25, 0x00	; 0
     578:	02 c0       	rjmp	.+4      	; 0x57e <initSensor+0x104>
     57a:	88 0f       	add	r24, r24
     57c:	99 1f       	adc	r25, r25
     57e:	6a 95       	dec	r22
     580:	e2 f7       	brpl	.-8      	; 0x57a <initSensor+0x100>
     582:	80 95       	com	r24
     584:	82 23       	and	r24, r18
     586:	80 83       	st	Z, r24
		break;
     588:	08 95       	ret
		case 'J':
		DDRJ &= ~(1 << port);
     58a:	e4 e0       	ldi	r30, 0x04	; 4
     58c:	f1 e0       	ldi	r31, 0x01	; 1
     58e:	20 81       	ld	r18, Z
     590:	81 e0       	ldi	r24, 0x01	; 1
     592:	90 e0       	ldi	r25, 0x00	; 0
     594:	02 c0       	rjmp	.+4      	; 0x59a <initSensor+0x120>
     596:	88 0f       	add	r24, r24
     598:	99 1f       	adc	r25, r25
     59a:	6a 95       	dec	r22
     59c:	e2 f7       	brpl	.-8      	; 0x596 <initSensor+0x11c>
     59e:	80 95       	com	r24
     5a0:	82 23       	and	r24, r18
     5a2:	80 83       	st	Z, r24
		break;
     5a4:	08 95       	ret
		case 'K':
		DDRK &= ~(1 << port);
     5a6:	e7 e0       	ldi	r30, 0x07	; 7
     5a8:	f1 e0       	ldi	r31, 0x01	; 1
     5aa:	20 81       	ld	r18, Z
     5ac:	81 e0       	ldi	r24, 0x01	; 1
     5ae:	90 e0       	ldi	r25, 0x00	; 0
     5b0:	02 c0       	rjmp	.+4      	; 0x5b6 <initSensor+0x13c>
     5b2:	88 0f       	add	r24, r24
     5b4:	99 1f       	adc	r25, r25
     5b6:	6a 95       	dec	r22
     5b8:	e2 f7       	brpl	.-8      	; 0x5b2 <initSensor+0x138>
     5ba:	80 95       	com	r24
     5bc:	82 23       	and	r24, r18
     5be:	80 83       	st	Z, r24
		break;
     5c0:	08 95       	ret
		case 'L':
		DDRL &= ~(1 << port);
     5c2:	ea e0       	ldi	r30, 0x0A	; 10
     5c4:	f1 e0       	ldi	r31, 0x01	; 1
     5c6:	20 81       	ld	r18, Z
     5c8:	81 e0       	ldi	r24, 0x01	; 1
     5ca:	90 e0       	ldi	r25, 0x00	; 0
     5cc:	02 c0       	rjmp	.+4      	; 0x5d2 <initSensor+0x158>
     5ce:	88 0f       	add	r24, r24
     5d0:	99 1f       	adc	r25, r25
     5d2:	6a 95       	dec	r22
     5d4:	e2 f7       	brpl	.-8      	; 0x5ce <initSensor+0x154>
     5d6:	80 95       	com	r24
     5d8:	82 23       	and	r24, r18
     5da:	80 83       	st	Z, r24
     5dc:	08 95       	ret

000005de <kontorStatus>:
	}
}

char kontorStatus()
{
	switch (register__)
     5de:	e0 91 17 02 	lds	r30, 0x0217	; 0x800217 <register__>
     5e2:	8e 2f       	mov	r24, r30
     5e4:	90 e0       	ldi	r25, 0x00	; 0
     5e6:	fc 01       	movw	r30, r24
     5e8:	e1 54       	subi	r30, 0x41	; 65
     5ea:	f1 09       	sbc	r31, r1
     5ec:	ec 30       	cpi	r30, 0x0C	; 12
     5ee:	f1 05       	cpc	r31, r1
     5f0:	08 f0       	brcs	.+2      	; 0x5f4 <kontorStatus+0x16>
     5f2:	06 c1       	rjmp	.+524    	; 0x800 <kontorStatus+0x222>
     5f4:	88 27       	eor	r24, r24
     5f6:	e2 58       	subi	r30, 0x82	; 130
     5f8:	ff 4f       	sbci	r31, 0xFF	; 255
     5fa:	8f 4f       	sbci	r24, 0xFF	; 255
     5fc:	60 c5       	rjmp	.+2752   	; 0x10be <__tablejump2__>
	{
		case 'A':
	
		if (PINA & (1 << port__))
     5fe:	80 b1       	in	r24, 0x00	; 0
     600:	90 e0       	ldi	r25, 0x00	; 0
     602:	00 90 1f 02 	lds	r0, 0x021F	; 0x80021f <port__>
     606:	02 c0       	rjmp	.+4      	; 0x60c <kontorStatus+0x2e>
     608:	95 95       	asr	r25
     60a:	87 95       	ror	r24
     60c:	0a 94       	dec	r0
     60e:	e2 f7       	brpl	.-8      	; 0x608 <kontorStatus+0x2a>
     610:	80 ff       	sbrs	r24, 0
     612:	06 c0       	rjmp	.+12     	; 0x620 <kontorStatus+0x42>
		{
			lektorDetected_ = '1';
     614:	81 e3       	ldi	r24, 0x31	; 49
     616:	80 93 18 02 	sts	0x0218, r24	; 0x800218 <lektorDetected_>
			return lektorDetected_;
     61a:	80 91 18 02 	lds	r24, 0x0218	; 0x800218 <lektorDetected_>
     61e:	08 95       	ret
		}
		else
		{
			lektorDetected_ = '0';
     620:	80 e3       	ldi	r24, 0x30	; 48
     622:	80 93 18 02 	sts	0x0218, r24	; 0x800218 <lektorDetected_>
			return lektorDetected_;
     626:	80 91 18 02 	lds	r24, 0x0218	; 0x800218 <lektorDetected_>
     62a:	08 95       	ret
		}
		break;

		case 'B':
		if (PINB & (1 << port__))
     62c:	83 b1       	in	r24, 0x03	; 3
     62e:	90 e0       	ldi	r25, 0x00	; 0
     630:	00 90 1f 02 	lds	r0, 0x021F	; 0x80021f <port__>
     634:	02 c0       	rjmp	.+4      	; 0x63a <kontorStatus+0x5c>
     636:	95 95       	asr	r25
     638:	87 95       	ror	r24
     63a:	0a 94       	dec	r0
     63c:	e2 f7       	brpl	.-8      	; 0x636 <kontorStatus+0x58>
     63e:	80 ff       	sbrs	r24, 0
     640:	06 c0       	rjmp	.+12     	; 0x64e <kontorStatus+0x70>
		{
			lektorDetected_ = '1';
     642:	81 e3       	ldi	r24, 0x31	; 49
     644:	80 93 18 02 	sts	0x0218, r24	; 0x800218 <lektorDetected_>
			return lektorDetected_;
     648:	80 91 18 02 	lds	r24, 0x0218	; 0x800218 <lektorDetected_>
     64c:	08 95       	ret
		}
		else
		{
			lektorDetected_ = '0';
     64e:	80 e3       	ldi	r24, 0x30	; 48
     650:	80 93 18 02 	sts	0x0218, r24	; 0x800218 <lektorDetected_>
			return lektorDetected_;
     654:	80 91 18 02 	lds	r24, 0x0218	; 0x800218 <lektorDetected_>
     658:	08 95       	ret
		}
		break;

		case 'C':
		if (PINC & (1 << port__))
     65a:	86 b1       	in	r24, 0x06	; 6
     65c:	90 e0       	ldi	r25, 0x00	; 0
     65e:	00 90 1f 02 	lds	r0, 0x021F	; 0x80021f <port__>
     662:	02 c0       	rjmp	.+4      	; 0x668 <kontorStatus+0x8a>
     664:	95 95       	asr	r25
     666:	87 95       	ror	r24
     668:	0a 94       	dec	r0
     66a:	e2 f7       	brpl	.-8      	; 0x664 <kontorStatus+0x86>
     66c:	80 ff       	sbrs	r24, 0
     66e:	06 c0       	rjmp	.+12     	; 0x67c <kontorStatus+0x9e>
		{
			lektorDetected_ = '1';
     670:	81 e3       	ldi	r24, 0x31	; 49
     672:	80 93 18 02 	sts	0x0218, r24	; 0x800218 <lektorDetected_>
			return lektorDetected_;
     676:	80 91 18 02 	lds	r24, 0x0218	; 0x800218 <lektorDetected_>
     67a:	08 95       	ret
		}
		else
		{
			lektorDetected_ = '0';
     67c:	80 e3       	ldi	r24, 0x30	; 48
     67e:	80 93 18 02 	sts	0x0218, r24	; 0x800218 <lektorDetected_>
			return lektorDetected_;
     682:	80 91 18 02 	lds	r24, 0x0218	; 0x800218 <lektorDetected_>
     686:	08 95       	ret
		}
		break;

		case 'D':
		if (PIND & (1 << port__))
     688:	89 b1       	in	r24, 0x09	; 9
     68a:	90 e0       	ldi	r25, 0x00	; 0
     68c:	00 90 1f 02 	lds	r0, 0x021F	; 0x80021f <port__>
     690:	02 c0       	rjmp	.+4      	; 0x696 <kontorStatus+0xb8>
     692:	95 95       	asr	r25
     694:	87 95       	ror	r24
     696:	0a 94       	dec	r0
     698:	e2 f7       	brpl	.-8      	; 0x692 <kontorStatus+0xb4>
     69a:	80 ff       	sbrs	r24, 0
     69c:	06 c0       	rjmp	.+12     	; 0x6aa <kontorStatus+0xcc>
		{
			lektorDetected_ = '1';
     69e:	81 e3       	ldi	r24, 0x31	; 49
     6a0:	80 93 18 02 	sts	0x0218, r24	; 0x800218 <lektorDetected_>
			return lektorDetected_;
     6a4:	80 91 18 02 	lds	r24, 0x0218	; 0x800218 <lektorDetected_>
     6a8:	08 95       	ret
		}
		else
		{
			lektorDetected_ = '0';
     6aa:	80 e3       	ldi	r24, 0x30	; 48
     6ac:	80 93 18 02 	sts	0x0218, r24	; 0x800218 <lektorDetected_>
			return lektorDetected_;
     6b0:	80 91 18 02 	lds	r24, 0x0218	; 0x800218 <lektorDetected_>
     6b4:	08 95       	ret
		}
		break;

		case 'E':
		if (PINE & (1 << port__))
     6b6:	8c b1       	in	r24, 0x0c	; 12
     6b8:	90 e0       	ldi	r25, 0x00	; 0
     6ba:	00 90 1f 02 	lds	r0, 0x021F	; 0x80021f <port__>
     6be:	02 c0       	rjmp	.+4      	; 0x6c4 <kontorStatus+0xe6>
     6c0:	95 95       	asr	r25
     6c2:	87 95       	ror	r24
     6c4:	0a 94       	dec	r0
     6c6:	e2 f7       	brpl	.-8      	; 0x6c0 <kontorStatus+0xe2>
     6c8:	80 ff       	sbrs	r24, 0
     6ca:	06 c0       	rjmp	.+12     	; 0x6d8 <kontorStatus+0xfa>
		{
			lektorDetected_ = '1';
     6cc:	81 e3       	ldi	r24, 0x31	; 49
     6ce:	80 93 18 02 	sts	0x0218, r24	; 0x800218 <lektorDetected_>
			return lektorDetected_;
     6d2:	80 91 18 02 	lds	r24, 0x0218	; 0x800218 <lektorDetected_>
     6d6:	08 95       	ret
		}
		else
		{
			lektorDetected_ = '0';
     6d8:	80 e3       	ldi	r24, 0x30	; 48
     6da:	80 93 18 02 	sts	0x0218, r24	; 0x800218 <lektorDetected_>
			return lektorDetected_;
     6de:	80 91 18 02 	lds	r24, 0x0218	; 0x800218 <lektorDetected_>
     6e2:	08 95       	ret
		}
		break;

		case 'F':
		if (PINF & (1 << port__))
     6e4:	8f b1       	in	r24, 0x0f	; 15
     6e6:	90 e0       	ldi	r25, 0x00	; 0
     6e8:	00 90 1f 02 	lds	r0, 0x021F	; 0x80021f <port__>
     6ec:	02 c0       	rjmp	.+4      	; 0x6f2 <kontorStatus+0x114>
     6ee:	95 95       	asr	r25
     6f0:	87 95       	ror	r24
     6f2:	0a 94       	dec	r0
     6f4:	e2 f7       	brpl	.-8      	; 0x6ee <kontorStatus+0x110>
     6f6:	80 ff       	sbrs	r24, 0
     6f8:	06 c0       	rjmp	.+12     	; 0x706 <kontorStatus+0x128>
		{
			lektorDetected_ = '1';
     6fa:	81 e3       	ldi	r24, 0x31	; 49
     6fc:	80 93 18 02 	sts	0x0218, r24	; 0x800218 <lektorDetected_>
			return lektorDetected_;
     700:	80 91 18 02 	lds	r24, 0x0218	; 0x800218 <lektorDetected_>
     704:	08 95       	ret
		}
		else
		{
			lektorDetected_ = '0';
     706:	80 e3       	ldi	r24, 0x30	; 48
     708:	80 93 18 02 	sts	0x0218, r24	; 0x800218 <lektorDetected_>
			return lektorDetected_;
     70c:	80 91 18 02 	lds	r24, 0x0218	; 0x800218 <lektorDetected_>
     710:	08 95       	ret
		}
		break;

		case 'G':
		if (PING & (1 << port__))
     712:	82 b3       	in	r24, 0x12	; 18
     714:	90 e0       	ldi	r25, 0x00	; 0
     716:	00 90 1f 02 	lds	r0, 0x021F	; 0x80021f <port__>
     71a:	02 c0       	rjmp	.+4      	; 0x720 <kontorStatus+0x142>
     71c:	95 95       	asr	r25
     71e:	87 95       	ror	r24
     720:	0a 94       	dec	r0
     722:	e2 f7       	brpl	.-8      	; 0x71c <kontorStatus+0x13e>
     724:	80 ff       	sbrs	r24, 0
     726:	06 c0       	rjmp	.+12     	; 0x734 <kontorStatus+0x156>
		{
			lektorDetected_ = '1';
     728:	81 e3       	ldi	r24, 0x31	; 49
     72a:	80 93 18 02 	sts	0x0218, r24	; 0x800218 <lektorDetected_>
			return lektorDetected_;
     72e:	80 91 18 02 	lds	r24, 0x0218	; 0x800218 <lektorDetected_>
     732:	08 95       	ret
		}
		else
		{
			lektorDetected_ = '0';
     734:	80 e3       	ldi	r24, 0x30	; 48
     736:	80 93 18 02 	sts	0x0218, r24	; 0x800218 <lektorDetected_>
			return lektorDetected_;
     73a:	80 91 18 02 	lds	r24, 0x0218	; 0x800218 <lektorDetected_>
     73e:	08 95       	ret
		}
		break;

		case 'H':
		if (PINH & (1 << port__))
     740:	80 91 00 01 	lds	r24, 0x0100	; 0x800100 <__TEXT_REGION_LENGTH__+0x700100>
     744:	90 e0       	ldi	r25, 0x00	; 0
     746:	00 90 1f 02 	lds	r0, 0x021F	; 0x80021f <port__>
     74a:	02 c0       	rjmp	.+4      	; 0x750 <kontorStatus+0x172>
     74c:	95 95       	asr	r25
     74e:	87 95       	ror	r24
     750:	0a 94       	dec	r0
     752:	e2 f7       	brpl	.-8      	; 0x74c <kontorStatus+0x16e>
     754:	80 ff       	sbrs	r24, 0
     756:	06 c0       	rjmp	.+12     	; 0x764 <kontorStatus+0x186>
		{
			lektorDetected_ = '1';
     758:	81 e3       	ldi	r24, 0x31	; 49
     75a:	80 93 18 02 	sts	0x0218, r24	; 0x800218 <lektorDetected_>
			return lektorDetected_;
     75e:	80 91 18 02 	lds	r24, 0x0218	; 0x800218 <lektorDetected_>
     762:	08 95       	ret
		}
		else
		{
			lektorDetected_ = '0';
     764:	80 e3       	ldi	r24, 0x30	; 48
     766:	80 93 18 02 	sts	0x0218, r24	; 0x800218 <lektorDetected_>
			return lektorDetected_;
     76a:	80 91 18 02 	lds	r24, 0x0218	; 0x800218 <lektorDetected_>
     76e:	08 95       	ret
		}
		break;

		case 'J':
		if (PINJ & (1 << port__))
     770:	80 91 03 01 	lds	r24, 0x0103	; 0x800103 <__TEXT_REGION_LENGTH__+0x700103>
     774:	90 e0       	ldi	r25, 0x00	; 0
     776:	00 90 1f 02 	lds	r0, 0x021F	; 0x80021f <port__>
     77a:	02 c0       	rjmp	.+4      	; 0x780 <kontorStatus+0x1a2>
     77c:	95 95       	asr	r25
     77e:	87 95       	ror	r24
     780:	0a 94       	dec	r0
     782:	e2 f7       	brpl	.-8      	; 0x77c <kontorStatus+0x19e>
     784:	80 ff       	sbrs	r24, 0
     786:	06 c0       	rjmp	.+12     	; 0x794 <kontorStatus+0x1b6>
		{
			lektorDetected_ = '1';
     788:	81 e3       	ldi	r24, 0x31	; 49
     78a:	80 93 18 02 	sts	0x0218, r24	; 0x800218 <lektorDetected_>
			return lektorDetected_;
     78e:	80 91 18 02 	lds	r24, 0x0218	; 0x800218 <lektorDetected_>
     792:	08 95       	ret
		}
		else
		{
			lektorDetected_ = '0';
     794:	80 e3       	ldi	r24, 0x30	; 48
     796:	80 93 18 02 	sts	0x0218, r24	; 0x800218 <lektorDetected_>
			return lektorDetected_;
     79a:	80 91 18 02 	lds	r24, 0x0218	; 0x800218 <lektorDetected_>
     79e:	08 95       	ret
		}
		break;

		case 'K':
		if (PINK & (1 << port__))
     7a0:	80 91 06 01 	lds	r24, 0x0106	; 0x800106 <__TEXT_REGION_LENGTH__+0x700106>
     7a4:	90 e0       	ldi	r25, 0x00	; 0
     7a6:	00 90 1f 02 	lds	r0, 0x021F	; 0x80021f <port__>
     7aa:	02 c0       	rjmp	.+4      	; 0x7b0 <kontorStatus+0x1d2>
     7ac:	95 95       	asr	r25
     7ae:	87 95       	ror	r24
     7b0:	0a 94       	dec	r0
     7b2:	e2 f7       	brpl	.-8      	; 0x7ac <kontorStatus+0x1ce>
     7b4:	80 ff       	sbrs	r24, 0
     7b6:	06 c0       	rjmp	.+12     	; 0x7c4 <kontorStatus+0x1e6>
		{
			lektorDetected_ = '1';
     7b8:	81 e3       	ldi	r24, 0x31	; 49
     7ba:	80 93 18 02 	sts	0x0218, r24	; 0x800218 <lektorDetected_>
			return lektorDetected_;
     7be:	80 91 18 02 	lds	r24, 0x0218	; 0x800218 <lektorDetected_>
     7c2:	08 95       	ret
		}
		else
		{
			lektorDetected_ = '0';
     7c4:	80 e3       	ldi	r24, 0x30	; 48
     7c6:	80 93 18 02 	sts	0x0218, r24	; 0x800218 <lektorDetected_>
			return lektorDetected_;
     7ca:	80 91 18 02 	lds	r24, 0x0218	; 0x800218 <lektorDetected_>
     7ce:	08 95       	ret
		}
		break;

		case 'L':
		if (PINL & (1 << port__))
     7d0:	80 91 09 01 	lds	r24, 0x0109	; 0x800109 <__TEXT_REGION_LENGTH__+0x700109>
     7d4:	90 e0       	ldi	r25, 0x00	; 0
     7d6:	00 90 1f 02 	lds	r0, 0x021F	; 0x80021f <port__>
     7da:	02 c0       	rjmp	.+4      	; 0x7e0 <kontorStatus+0x202>
     7dc:	95 95       	asr	r25
     7de:	87 95       	ror	r24
     7e0:	0a 94       	dec	r0
     7e2:	e2 f7       	brpl	.-8      	; 0x7dc <kontorStatus+0x1fe>
     7e4:	80 ff       	sbrs	r24, 0
     7e6:	06 c0       	rjmp	.+12     	; 0x7f4 <kontorStatus+0x216>
		{
			lektorDetected_ = '1';
     7e8:	81 e3       	ldi	r24, 0x31	; 49
     7ea:	80 93 18 02 	sts	0x0218, r24	; 0x800218 <lektorDetected_>
			return lektorDetected_;
     7ee:	80 91 18 02 	lds	r24, 0x0218	; 0x800218 <lektorDetected_>
     7f2:	08 95       	ret
		}
		else
		{
			lektorDetected_ = '0';
     7f4:	80 e3       	ldi	r24, 0x30	; 48
     7f6:	80 93 18 02 	sts	0x0218, r24	; 0x800218 <lektorDetected_>
			return lektorDetected_;
     7fa:	80 91 18 02 	lds	r24, 0x0218	; 0x800218 <lektorDetected_>
     7fe:	08 95       	ret
		}
		break;
		default: return '0';
     800:	80 e3       	ldi	r24, 0x30	; 48
	}
     802:	08 95       	ret

00000804 <returnerTimerStatus>:


 void resetTimer()
 {
	ctr_ = 0;
	timerStatus_ = '0';
     804:	80 91 0e 02 	lds	r24, 0x020E	; 0x80020e <timerStatus_>
     808:	90 91 0f 02 	lds	r25, 0x020F	; 0x80020f <timerStatus_+0x1>
     80c:	08 95       	ret

0000080e <setTimer>:

 void setTimer()
 {
 
      //Sæt timerStatus til '1' (=going)
	  timerStatus_ = '1';	
     80e:	81 e3       	ldi	r24, 0x31	; 49
     810:	90 e0       	ldi	r25, 0x00	; 0
     812:	90 93 0f 02 	sts	0x020F, r25	; 0x80020f <timerStatus_+0x1>
     816:	80 93 0e 02 	sts	0x020E, r24	; 0x80020e <timerStatus_>
	  // Timer1: Normal mode, PS = 1024
	  TCCR1A = 0b00000000;
     81a:	10 92 80 00 	sts	0x0080, r1	; 0x800080 <__TEXT_REGION_LENGTH__+0x700080>
	  TCCR1B = 0b00000101;
     81e:	85 e0       	ldi	r24, 0x05	; 5
     820:	80 93 81 00 	sts	0x0081, r24	; 0x800081 <__TEXT_REGION_LENGTH__+0x700081>
	  // Enable Timer1 overflow interrupt
	  TCNT1 = (0xFFFF-15625);
     824:	86 ef       	ldi	r24, 0xF6	; 246
     826:	92 ec       	ldi	r25, 0xC2	; 194
     828:	90 93 85 00 	sts	0x0085, r25	; 0x800085 <__TEXT_REGION_LENGTH__+0x700085>
     82c:	80 93 84 00 	sts	0x0084, r24	; 0x800084 <__TEXT_REGION_LENGTH__+0x700084>
	  TIMSK1 |= 0b00000001;
     830:	ef e6       	ldi	r30, 0x6F	; 111
     832:	f0 e0       	ldi	r31, 0x00	; 0
     834:	80 81       	ld	r24, Z
     836:	81 60       	ori	r24, 0x01	; 1
     838:	80 83       	st	Z, r24
     83a:	08 95       	ret

0000083c <__vector_20>:
	  
}

 ISR(TIMER1_OVF_vect)
 {
     83c:	1f 92       	push	r1
     83e:	0f 92       	push	r0
     840:	0f b6       	in	r0, 0x3f	; 63
     842:	0f 92       	push	r0
     844:	11 24       	eor	r1, r1
     846:	0b b6       	in	r0, 0x3b	; 59
     848:	0f 92       	push	r0
     84a:	2f 93       	push	r18
     84c:	8f 93       	push	r24
     84e:	9f 93       	push	r25
     850:	ef 93       	push	r30
     852:	ff 93       	push	r31
	 // Tæller ctr_ op hvert sekund.
	 ctr_++;
     854:	80 91 10 02 	lds	r24, 0x0210	; 0x800210 <ctr_>
     858:	90 91 11 02 	lds	r25, 0x0211	; 0x800211 <ctr_+0x1>
     85c:	01 96       	adiw	r24, 0x01	; 1
     85e:	90 93 11 02 	sts	0x0211, r25	; 0x800211 <ctr_+0x1>
     862:	80 93 10 02 	sts	0x0210, r24	; 0x800210 <ctr_>
	 //	sætter tcnt1 til krævet værdi for 1s delay
	 TCNT1 = (0xFFFF-15625);
     866:	86 ef       	ldi	r24, 0xF6	; 246
     868:	92 ec       	ldi	r25, 0xC2	; 194
     86a:	90 93 85 00 	sts	0x0085, r25	; 0x800085 <__TEXT_REGION_LENGTH__+0x700085>
     86e:	80 93 84 00 	sts	0x0084, r24	; 0x800084 <__TEXT_REGION_LENGTH__+0x700084>

	 if (ctr_ == 600) //overflow 1 gang i sekundet betyder 600 = 10 min.	 
     872:	80 91 10 02 	lds	r24, 0x0210	; 0x800210 <ctr_>
     876:	90 91 11 02 	lds	r25, 0x0211	; 0x800211 <ctr_+0x1>
     87a:	88 35       	cpi	r24, 0x58	; 88
     87c:	92 40       	sbci	r25, 0x02	; 2
     87e:	71 f4       	brne	.+28     	; 0x89c <__vector_20+0x60>
	 {
		timerStatus_ = '0';
     880:	80 e3       	ldi	r24, 0x30	; 48
     882:	90 e0       	ldi	r25, 0x00	; 0
     884:	90 93 0f 02 	sts	0x020F, r25	; 0x80020f <timerStatus_+0x1>
     888:	80 93 0e 02 	sts	0x020E, r24	; 0x80020e <timerStatus_>
		ctr_ = 0;
     88c:	10 92 11 02 	sts	0x0211, r1	; 0x800211 <ctr_+0x1>
     890:	10 92 10 02 	sts	0x0210, r1	; 0x800210 <ctr_>
		TIMSK1 &= 0;
     894:	ef e6       	ldi	r30, 0x6F	; 111
     896:	f0 e0       	ldi	r31, 0x00	; 0
     898:	80 81       	ld	r24, Z
     89a:	10 82       	st	Z, r1
	 }
     89c:	ff 91       	pop	r31
     89e:	ef 91       	pop	r30
     8a0:	9f 91       	pop	r25
     8a2:	8f 91       	pop	r24
     8a4:	2f 91       	pop	r18
     8a6:	0f 90       	pop	r0
     8a8:	0b be       	out	0x3b, r0	; 59
     8aa:	0f 90       	pop	r0
     8ac:	0f be       	out	0x3f, r0	; 63
     8ae:	0f 90       	pop	r0
     8b0:	1f 90       	pop	r1
     8b2:	18 95       	reti

000008b4 <T2Delay_us>:

 void T2Delay_us(int delay_us) // MAX 15 uS DELAY!!!
 {
	 int us;
	 
	 if (delay_us <= 15 && delay_us > 0) //int delay_ms, skal være mellem 0 og 15
     8b4:	9c 01       	movw	r18, r24
     8b6:	21 50       	subi	r18, 0x01	; 1
     8b8:	31 09       	sbc	r19, r1
     8ba:	2f 30       	cpi	r18, 0x0F	; 15
     8bc:	31 05       	cpc	r19, r1
     8be:	10 f0       	brcs	.+4      	; 0x8c4 <T2Delay_us+0x10>
	 }
	 
	 else
	 
	 {
		 us = 1;
     8c0:	81 e0       	ldi	r24, 0x01	; 1
     8c2:	90 e0       	ldi	r25, 0x00	; 0
	 }
	 //x for 1s = 240 v. fravær af PS, derfor 16*us
	 TCNT2 = (256-(16*us));
     8c4:	82 95       	swap	r24
     8c6:	80 7f       	andi	r24, 0xF0	; 240
     8c8:	81 95       	neg	r24
     8ca:	80 93 b2 00 	sts	0x00B2, r24	; 0x8000b2 <__TEXT_REGION_LENGTH__+0x7000b2>
	 
	 //Prescaler = 0, normal mode.
	 TCCR2A = 0x00000000;
     8ce:	10 92 b0 00 	sts	0x00B0, r1	; 0x8000b0 <__TEXT_REGION_LENGTH__+0x7000b0>
	 TCCR2B = 0x00000001;
     8d2:	81 e0       	ldi	r24, 0x01	; 1
     8d4:	80 93 b1 00 	sts	0x00B1, r24	; 0x8000b1 <__TEXT_REGION_LENGTH__+0x7000b1>

	 //lav ingenting indtil timer 2 flag register sættes
	 while ((TIFR2 & (1<<0)) == 0) {}
     8d8:	b8 9b       	sbis	0x17, 0	; 23
     8da:	fe cf       	rjmp	.-4      	; 0x8d8 <T2Delay_us+0x24>

	 TCCR2B = 0;
     8dc:	10 92 b1 00 	sts	0x00B1, r1	; 0x8000b1 <__TEXT_REGION_LENGTH__+0x7000b1>

	 TIFR2 = 1<<0;
     8e0:	81 e0       	ldi	r24, 0x01	; 1
     8e2:	87 bb       	out	0x17, r24	; 23
     8e4:	08 95       	ret

000008e6 <initToggleSwitch>:
 #include "ToggleSwitch.h"

void initToggleSwitch(char register_, short int port)

{
 	if (register_ > 'L' || register_ < 'A' || register_ == 'I')
     8e6:	9f eb       	ldi	r25, 0xBF	; 191
     8e8:	98 0f       	add	r25, r24
     8ea:	9c 30       	cpi	r25, 0x0C	; 12
     8ec:	10 f4       	brcc	.+4      	; 0x8f2 <initToggleSwitch+0xc>
     8ee:	89 34       	cpi	r24, 0x49	; 73
     8f0:	39 f4       	brne	.+14     	; 0x900 <initToggleSwitch+0x1a>
 	{
	 	register___ = 'A';
     8f2:	81 e4       	ldi	r24, 0x41	; 65
     8f4:	80 93 19 02 	sts	0x0219, r24	; 0x800219 <register___>
 	}
 	if (port > 7)
     8f8:	68 30       	cpi	r22, 0x08	; 8
     8fa:	71 05       	cpc	r23, r1
     8fc:	24 f4       	brge	.+8      	; 0x906 <initToggleSwitch+0x20>
     8fe:	19 c0       	rjmp	.+50     	; 0x932 <initToggleSwitch+0x4c>
     900:	68 30       	cpi	r22, 0x08	; 8
     902:	71 05       	cpc	r23, r1
     904:	34 f0       	brlt	.+12     	; 0x912 <initToggleSwitch+0x2c>
 	{
	 	port___ = 1;
     906:	81 e0       	ldi	r24, 0x01	; 1
     908:	90 e0       	ldi	r25, 0x00	; 0
     90a:	90 93 1e 02 	sts	0x021E, r25	; 0x80021e <port___+0x1>
     90e:	80 93 1d 02 	sts	0x021D, r24	; 0x80021d <port___>
 	}
 	
 	switch (register___)
     912:	e0 91 19 02 	lds	r30, 0x0219	; 0x800219 <register___>
     916:	8e 2f       	mov	r24, r30
     918:	90 e0       	ldi	r25, 0x00	; 0
     91a:	fc 01       	movw	r30, r24
     91c:	e1 54       	subi	r30, 0x41	; 65
     91e:	f1 09       	sbc	r31, r1
     920:	ec 30       	cpi	r30, 0x0C	; 12
     922:	f1 05       	cpc	r31, r1
     924:	08 f0       	brcs	.+2      	; 0x928 <initToggleSwitch+0x42>
     926:	90 c0       	rjmp	.+288    	; 0xa48 <initToggleSwitch+0x162>
     928:	88 27       	eor	r24, r24
     92a:	e6 57       	subi	r30, 0x76	; 118
     92c:	ff 4f       	sbci	r31, 0xFF	; 255
     92e:	8f 4f       	sbci	r24, 0xFF	; 255
     930:	c6 c3       	rjmp	.+1932   	; 0x10be <__tablejump2__>
 	{
	 	case 'A':
	 	DDRA &= ~(1 << port);
     932:	21 b1       	in	r18, 0x01	; 1
     934:	81 e0       	ldi	r24, 0x01	; 1
     936:	90 e0       	ldi	r25, 0x00	; 0
     938:	02 c0       	rjmp	.+4      	; 0x93e <initToggleSwitch+0x58>
     93a:	88 0f       	add	r24, r24
     93c:	99 1f       	adc	r25, r25
     93e:	6a 95       	dec	r22
     940:	e2 f7       	brpl	.-8      	; 0x93a <initToggleSwitch+0x54>
     942:	80 95       	com	r24
     944:	82 23       	and	r24, r18
     946:	81 b9       	out	0x01, r24	; 1
	 	break;
     948:	08 95       	ret
	 	case 'B':
	 	DDRB &= ~(1 << port);
     94a:	24 b1       	in	r18, 0x04	; 4
     94c:	81 e0       	ldi	r24, 0x01	; 1
     94e:	90 e0       	ldi	r25, 0x00	; 0
     950:	02 c0       	rjmp	.+4      	; 0x956 <initToggleSwitch+0x70>
     952:	88 0f       	add	r24, r24
     954:	99 1f       	adc	r25, r25
     956:	6a 95       	dec	r22
     958:	e2 f7       	brpl	.-8      	; 0x952 <initToggleSwitch+0x6c>
     95a:	80 95       	com	r24
     95c:	82 23       	and	r24, r18
     95e:	84 b9       	out	0x04, r24	; 4
	 	break;
     960:	08 95       	ret
	 	case 'C':
	 	DDRC &= ~(1 << port);
     962:	27 b1       	in	r18, 0x07	; 7
     964:	81 e0       	ldi	r24, 0x01	; 1
     966:	90 e0       	ldi	r25, 0x00	; 0
     968:	02 c0       	rjmp	.+4      	; 0x96e <initToggleSwitch+0x88>
     96a:	88 0f       	add	r24, r24
     96c:	99 1f       	adc	r25, r25
     96e:	6a 95       	dec	r22
     970:	e2 f7       	brpl	.-8      	; 0x96a <initToggleSwitch+0x84>
     972:	80 95       	com	r24
     974:	82 23       	and	r24, r18
     976:	87 b9       	out	0x07, r24	; 7
	 	break;
     978:	08 95       	ret
	 	case 'D':
	 	DDRD &= ~(1 << port);
     97a:	2a b1       	in	r18, 0x0a	; 10
     97c:	81 e0       	ldi	r24, 0x01	; 1
     97e:	90 e0       	ldi	r25, 0x00	; 0
     980:	02 c0       	rjmp	.+4      	; 0x986 <initToggleSwitch+0xa0>
     982:	88 0f       	add	r24, r24
     984:	99 1f       	adc	r25, r25
     986:	6a 95       	dec	r22
     988:	e2 f7       	brpl	.-8      	; 0x982 <initToggleSwitch+0x9c>
     98a:	80 95       	com	r24
     98c:	82 23       	and	r24, r18
     98e:	8a b9       	out	0x0a, r24	; 10
	 	break;
     990:	08 95       	ret
	 	case 'E':
	 	DDRE &= ~(1 << port);
     992:	2d b1       	in	r18, 0x0d	; 13
     994:	81 e0       	ldi	r24, 0x01	; 1
     996:	90 e0       	ldi	r25, 0x00	; 0
     998:	02 c0       	rjmp	.+4      	; 0x99e <initToggleSwitch+0xb8>
     99a:	88 0f       	add	r24, r24
     99c:	99 1f       	adc	r25, r25
     99e:	6a 95       	dec	r22
     9a0:	e2 f7       	brpl	.-8      	; 0x99a <initToggleSwitch+0xb4>
     9a2:	80 95       	com	r24
     9a4:	82 23       	and	r24, r18
     9a6:	8d b9       	out	0x0d, r24	; 13
	 	break;
     9a8:	08 95       	ret
	 	case 'F':
	 	DDRF &= ~(1 << port);
     9aa:	20 b3       	in	r18, 0x10	; 16
     9ac:	81 e0       	ldi	r24, 0x01	; 1
     9ae:	90 e0       	ldi	r25, 0x00	; 0
     9b0:	02 c0       	rjmp	.+4      	; 0x9b6 <initToggleSwitch+0xd0>
     9b2:	88 0f       	add	r24, r24
     9b4:	99 1f       	adc	r25, r25
     9b6:	6a 95       	dec	r22
     9b8:	e2 f7       	brpl	.-8      	; 0x9b2 <initToggleSwitch+0xcc>
     9ba:	80 95       	com	r24
     9bc:	82 23       	and	r24, r18
     9be:	80 bb       	out	0x10, r24	; 16
	 	break;
     9c0:	08 95       	ret
	 	case 'G':
	 	DDRG &= ~(1 << port);
     9c2:	23 b3       	in	r18, 0x13	; 19
     9c4:	81 e0       	ldi	r24, 0x01	; 1
     9c6:	90 e0       	ldi	r25, 0x00	; 0
     9c8:	02 c0       	rjmp	.+4      	; 0x9ce <initToggleSwitch+0xe8>
     9ca:	88 0f       	add	r24, r24
     9cc:	99 1f       	adc	r25, r25
     9ce:	6a 95       	dec	r22
     9d0:	e2 f7       	brpl	.-8      	; 0x9ca <initToggleSwitch+0xe4>
     9d2:	80 95       	com	r24
     9d4:	82 23       	and	r24, r18
     9d6:	83 bb       	out	0x13, r24	; 19
	 	break;
     9d8:	08 95       	ret
	 	case 'H':
	 	DDRH &= ~(1 << port);
     9da:	e1 e0       	ldi	r30, 0x01	; 1
     9dc:	f1 e0       	ldi	r31, 0x01	; 1
     9de:	20 81       	ld	r18, Z
     9e0:	81 e0       	ldi	r24, 0x01	; 1
     9e2:	90 e0       	ldi	r25, 0x00	; 0
     9e4:	02 c0       	rjmp	.+4      	; 0x9ea <initToggleSwitch+0x104>
     9e6:	88 0f       	add	r24, r24
     9e8:	99 1f       	adc	r25, r25
     9ea:	6a 95       	dec	r22
     9ec:	e2 f7       	brpl	.-8      	; 0x9e6 <initToggleSwitch+0x100>
     9ee:	80 95       	com	r24
     9f0:	82 23       	and	r24, r18
     9f2:	80 83       	st	Z, r24
	 	break;
     9f4:	08 95       	ret
	 	case 'J':
	 	DDRJ &= ~(1 << port);
     9f6:	e4 e0       	ldi	r30, 0x04	; 4
     9f8:	f1 e0       	ldi	r31, 0x01	; 1
     9fa:	20 81       	ld	r18, Z
     9fc:	81 e0       	ldi	r24, 0x01	; 1
     9fe:	90 e0       	ldi	r25, 0x00	; 0
     a00:	02 c0       	rjmp	.+4      	; 0xa06 <initToggleSwitch+0x120>
     a02:	88 0f       	add	r24, r24
     a04:	99 1f       	adc	r25, r25
     a06:	6a 95       	dec	r22
     a08:	e2 f7       	brpl	.-8      	; 0xa02 <initToggleSwitch+0x11c>
     a0a:	80 95       	com	r24
     a0c:	82 23       	and	r24, r18
     a0e:	80 83       	st	Z, r24
	 	break;
     a10:	08 95       	ret
	 	case 'K':
	 	DDRK &= ~(1 << port);
     a12:	e7 e0       	ldi	r30, 0x07	; 7
     a14:	f1 e0       	ldi	r31, 0x01	; 1
     a16:	20 81       	ld	r18, Z
     a18:	81 e0       	ldi	r24, 0x01	; 1
     a1a:	90 e0       	ldi	r25, 0x00	; 0
     a1c:	02 c0       	rjmp	.+4      	; 0xa22 <initToggleSwitch+0x13c>
     a1e:	88 0f       	add	r24, r24
     a20:	99 1f       	adc	r25, r25
     a22:	6a 95       	dec	r22
     a24:	e2 f7       	brpl	.-8      	; 0xa1e <initToggleSwitch+0x138>
     a26:	80 95       	com	r24
     a28:	82 23       	and	r24, r18
     a2a:	80 83       	st	Z, r24
	 	break;
     a2c:	08 95       	ret
	 	case 'L':
	 	DDRL &= ~(1 << port);
     a2e:	ea e0       	ldi	r30, 0x0A	; 10
     a30:	f1 e0       	ldi	r31, 0x01	; 1
     a32:	20 81       	ld	r18, Z
     a34:	81 e0       	ldi	r24, 0x01	; 1
     a36:	90 e0       	ldi	r25, 0x00	; 0
     a38:	02 c0       	rjmp	.+4      	; 0xa3e <initToggleSwitch+0x158>
     a3a:	88 0f       	add	r24, r24
     a3c:	99 1f       	adc	r25, r25
     a3e:	6a 95       	dec	r22
     a40:	e2 f7       	brpl	.-8      	; 0xa3a <initToggleSwitch+0x154>
     a42:	80 95       	com	r24
     a44:	82 23       	and	r24, r18
     a46:	80 83       	st	Z, r24
     a48:	08 95       	ret

00000a4a <toggleSwitchStatus>:

}

char toggleSwitchStatus()
{
	switch (register___)
     a4a:	e0 91 19 02 	lds	r30, 0x0219	; 0x800219 <register___>
     a4e:	8e 2f       	mov	r24, r30
     a50:	90 e0       	ldi	r25, 0x00	; 0
     a52:	fc 01       	movw	r30, r24
     a54:	e1 54       	subi	r30, 0x41	; 65
     a56:	f1 09       	sbc	r31, r1
     a58:	ec 30       	cpi	r30, 0x0C	; 12
     a5a:	f1 05       	cpc	r31, r1
     a5c:	08 f0       	brcs	.+2      	; 0xa60 <toggleSwitchStatus+0x16>
     a5e:	06 c1       	rjmp	.+524    	; 0xc6c <toggleSwitchStatus+0x222>
     a60:	88 27       	eor	r24, r24
     a62:	ea 56       	subi	r30, 0x6A	; 106
     a64:	ff 4f       	sbci	r31, 0xFF	; 255
     a66:	8f 4f       	sbci	r24, 0xFF	; 255
     a68:	2a c3       	rjmp	.+1620   	; 0x10be <__tablejump2__>
	{
		case 'A':
		
		if (PINA & (1 << port___))
     a6a:	80 b1       	in	r24, 0x00	; 0
     a6c:	90 e0       	ldi	r25, 0x00	; 0
     a6e:	00 90 1d 02 	lds	r0, 0x021D	; 0x80021d <port___>
     a72:	02 c0       	rjmp	.+4      	; 0xa78 <toggleSwitchStatus+0x2e>
     a74:	95 95       	asr	r25
     a76:	87 95       	ror	r24
     a78:	0a 94       	dec	r0
     a7a:	e2 f7       	brpl	.-8      	; 0xa74 <toggleSwitchStatus+0x2a>
     a7c:	80 ff       	sbrs	r24, 0
     a7e:	06 c0       	rjmp	.+12     	; 0xa8c <toggleSwitchStatus+0x42>
		{
			tilstand_ = '1';
     a80:	81 e3       	ldi	r24, 0x31	; 49
     a82:	80 93 1c 02 	sts	0x021C, r24	; 0x80021c <tilstand_>
			return tilstand_;
     a86:	80 91 1c 02 	lds	r24, 0x021C	; 0x80021c <tilstand_>
     a8a:	08 95       	ret
		}
		else 		
		{
			tilstand_ = '0';
     a8c:	80 e3       	ldi	r24, 0x30	; 48
     a8e:	80 93 1c 02 	sts	0x021C, r24	; 0x80021c <tilstand_>
			return tilstand_;
     a92:	80 91 1c 02 	lds	r24, 0x021C	; 0x80021c <tilstand_>
     a96:	08 95       	ret
		}
		break;

		case 'B':
		if (PINB & (1 << port___))
     a98:	83 b1       	in	r24, 0x03	; 3
     a9a:	90 e0       	ldi	r25, 0x00	; 0
     a9c:	00 90 1d 02 	lds	r0, 0x021D	; 0x80021d <port___>
     aa0:	02 c0       	rjmp	.+4      	; 0xaa6 <toggleSwitchStatus+0x5c>
     aa2:	95 95       	asr	r25
     aa4:	87 95       	ror	r24
     aa6:	0a 94       	dec	r0
     aa8:	e2 f7       	brpl	.-8      	; 0xaa2 <toggleSwitchStatus+0x58>
     aaa:	80 ff       	sbrs	r24, 0
     aac:	06 c0       	rjmp	.+12     	; 0xaba <toggleSwitchStatus+0x70>
		{
			tilstand_ = '1';
     aae:	81 e3       	ldi	r24, 0x31	; 49
     ab0:	80 93 1c 02 	sts	0x021C, r24	; 0x80021c <tilstand_>
			return tilstand_;
     ab4:	80 91 1c 02 	lds	r24, 0x021C	; 0x80021c <tilstand_>
     ab8:	08 95       	ret
		}
		else 		
		{
			tilstand_ = '0';
     aba:	80 e3       	ldi	r24, 0x30	; 48
     abc:	80 93 1c 02 	sts	0x021C, r24	; 0x80021c <tilstand_>
			return tilstand_;
     ac0:	80 91 1c 02 	lds	r24, 0x021C	; 0x80021c <tilstand_>
     ac4:	08 95       	ret
		}
		break;

		case 'C':
		if (PINC & (1 << port___))
     ac6:	86 b1       	in	r24, 0x06	; 6
     ac8:	90 e0       	ldi	r25, 0x00	; 0
     aca:	00 90 1d 02 	lds	r0, 0x021D	; 0x80021d <port___>
     ace:	02 c0       	rjmp	.+4      	; 0xad4 <toggleSwitchStatus+0x8a>
     ad0:	95 95       	asr	r25
     ad2:	87 95       	ror	r24
     ad4:	0a 94       	dec	r0
     ad6:	e2 f7       	brpl	.-8      	; 0xad0 <toggleSwitchStatus+0x86>
     ad8:	80 ff       	sbrs	r24, 0
     ada:	06 c0       	rjmp	.+12     	; 0xae8 <toggleSwitchStatus+0x9e>
		{
			tilstand_ = '1';
     adc:	81 e3       	ldi	r24, 0x31	; 49
     ade:	80 93 1c 02 	sts	0x021C, r24	; 0x80021c <tilstand_>
			return tilstand_;
     ae2:	80 91 1c 02 	lds	r24, 0x021C	; 0x80021c <tilstand_>
     ae6:	08 95       	ret
		}
		else 		
		{
			tilstand_ = '0';
     ae8:	80 e3       	ldi	r24, 0x30	; 48
     aea:	80 93 1c 02 	sts	0x021C, r24	; 0x80021c <tilstand_>
			return tilstand_;
     aee:	80 91 1c 02 	lds	r24, 0x021C	; 0x80021c <tilstand_>
     af2:	08 95       	ret
		}
		break;

		case 'D':
		if (PIND & (1 << port___))
     af4:	89 b1       	in	r24, 0x09	; 9
     af6:	90 e0       	ldi	r25, 0x00	; 0
     af8:	00 90 1d 02 	lds	r0, 0x021D	; 0x80021d <port___>
     afc:	02 c0       	rjmp	.+4      	; 0xb02 <toggleSwitchStatus+0xb8>
     afe:	95 95       	asr	r25
     b00:	87 95       	ror	r24
     b02:	0a 94       	dec	r0
     b04:	e2 f7       	brpl	.-8      	; 0xafe <toggleSwitchStatus+0xb4>
     b06:	80 ff       	sbrs	r24, 0
     b08:	06 c0       	rjmp	.+12     	; 0xb16 <toggleSwitchStatus+0xcc>
		{
			tilstand_ = '1';
     b0a:	81 e3       	ldi	r24, 0x31	; 49
     b0c:	80 93 1c 02 	sts	0x021C, r24	; 0x80021c <tilstand_>
			return tilstand_;
     b10:	80 91 1c 02 	lds	r24, 0x021C	; 0x80021c <tilstand_>
     b14:	08 95       	ret
		}
		else 		
		{
			tilstand_ = '0';
     b16:	80 e3       	ldi	r24, 0x30	; 48
     b18:	80 93 1c 02 	sts	0x021C, r24	; 0x80021c <tilstand_>
			return tilstand_;
     b1c:	80 91 1c 02 	lds	r24, 0x021C	; 0x80021c <tilstand_>
     b20:	08 95       	ret
		}
		break;

		case 'E':
		if (PINE & (1 << port___))
     b22:	8c b1       	in	r24, 0x0c	; 12
     b24:	90 e0       	ldi	r25, 0x00	; 0
     b26:	00 90 1d 02 	lds	r0, 0x021D	; 0x80021d <port___>
     b2a:	02 c0       	rjmp	.+4      	; 0xb30 <toggleSwitchStatus+0xe6>
     b2c:	95 95       	asr	r25
     b2e:	87 95       	ror	r24
     b30:	0a 94       	dec	r0
     b32:	e2 f7       	brpl	.-8      	; 0xb2c <toggleSwitchStatus+0xe2>
     b34:	80 ff       	sbrs	r24, 0
     b36:	06 c0       	rjmp	.+12     	; 0xb44 <toggleSwitchStatus+0xfa>
		{
			tilstand_ = '1';
     b38:	81 e3       	ldi	r24, 0x31	; 49
     b3a:	80 93 1c 02 	sts	0x021C, r24	; 0x80021c <tilstand_>
			return tilstand_;
     b3e:	80 91 1c 02 	lds	r24, 0x021C	; 0x80021c <tilstand_>
     b42:	08 95       	ret
		}
		else 		
		{
			tilstand_ = '0';
     b44:	80 e3       	ldi	r24, 0x30	; 48
     b46:	80 93 1c 02 	sts	0x021C, r24	; 0x80021c <tilstand_>
			return tilstand_;
     b4a:	80 91 1c 02 	lds	r24, 0x021C	; 0x80021c <tilstand_>
     b4e:	08 95       	ret
		}
		break;

		case 'F':
		if (PINF & (1 << port___))
     b50:	8f b1       	in	r24, 0x0f	; 15
     b52:	90 e0       	ldi	r25, 0x00	; 0
     b54:	00 90 1d 02 	lds	r0, 0x021D	; 0x80021d <port___>
     b58:	02 c0       	rjmp	.+4      	; 0xb5e <toggleSwitchStatus+0x114>
     b5a:	95 95       	asr	r25
     b5c:	87 95       	ror	r24
     b5e:	0a 94       	dec	r0
     b60:	e2 f7       	brpl	.-8      	; 0xb5a <toggleSwitchStatus+0x110>
     b62:	80 ff       	sbrs	r24, 0
     b64:	06 c0       	rjmp	.+12     	; 0xb72 <toggleSwitchStatus+0x128>
		{
			tilstand_ = '1';
     b66:	81 e3       	ldi	r24, 0x31	; 49
     b68:	80 93 1c 02 	sts	0x021C, r24	; 0x80021c <tilstand_>
			return tilstand_;
     b6c:	80 91 1c 02 	lds	r24, 0x021C	; 0x80021c <tilstand_>
     b70:	08 95       	ret
		}
		else 		
		{
			tilstand_ = '0';
     b72:	80 e3       	ldi	r24, 0x30	; 48
     b74:	80 93 1c 02 	sts	0x021C, r24	; 0x80021c <tilstand_>
			return tilstand_;
     b78:	80 91 1c 02 	lds	r24, 0x021C	; 0x80021c <tilstand_>
     b7c:	08 95       	ret
		}
		break;

		case 'G':
		if (PING & (1 << port___))
     b7e:	82 b3       	in	r24, 0x12	; 18
     b80:	90 e0       	ldi	r25, 0x00	; 0
     b82:	00 90 1d 02 	lds	r0, 0x021D	; 0x80021d <port___>
     b86:	02 c0       	rjmp	.+4      	; 0xb8c <toggleSwitchStatus+0x142>
     b88:	95 95       	asr	r25
     b8a:	87 95       	ror	r24
     b8c:	0a 94       	dec	r0
     b8e:	e2 f7       	brpl	.-8      	; 0xb88 <toggleSwitchStatus+0x13e>
     b90:	80 ff       	sbrs	r24, 0
     b92:	06 c0       	rjmp	.+12     	; 0xba0 <toggleSwitchStatus+0x156>
		{
			tilstand_ = '1';
     b94:	81 e3       	ldi	r24, 0x31	; 49
     b96:	80 93 1c 02 	sts	0x021C, r24	; 0x80021c <tilstand_>
			return tilstand_;
     b9a:	80 91 1c 02 	lds	r24, 0x021C	; 0x80021c <tilstand_>
     b9e:	08 95       	ret
		}
		else 		
		{
			tilstand_ = '0';
     ba0:	80 e3       	ldi	r24, 0x30	; 48
     ba2:	80 93 1c 02 	sts	0x021C, r24	; 0x80021c <tilstand_>
			return tilstand_;
     ba6:	80 91 1c 02 	lds	r24, 0x021C	; 0x80021c <tilstand_>
     baa:	08 95       	ret
		}
		break;

		case 'H':
		if (PINH & (1 << port___))
     bac:	80 91 00 01 	lds	r24, 0x0100	; 0x800100 <__TEXT_REGION_LENGTH__+0x700100>
     bb0:	90 e0       	ldi	r25, 0x00	; 0
     bb2:	00 90 1d 02 	lds	r0, 0x021D	; 0x80021d <port___>
     bb6:	02 c0       	rjmp	.+4      	; 0xbbc <toggleSwitchStatus+0x172>
     bb8:	95 95       	asr	r25
     bba:	87 95       	ror	r24
     bbc:	0a 94       	dec	r0
     bbe:	e2 f7       	brpl	.-8      	; 0xbb8 <toggleSwitchStatus+0x16e>
     bc0:	80 ff       	sbrs	r24, 0
     bc2:	06 c0       	rjmp	.+12     	; 0xbd0 <toggleSwitchStatus+0x186>
		{
			tilstand_ = '1';
     bc4:	81 e3       	ldi	r24, 0x31	; 49
     bc6:	80 93 1c 02 	sts	0x021C, r24	; 0x80021c <tilstand_>
			return tilstand_;
     bca:	80 91 1c 02 	lds	r24, 0x021C	; 0x80021c <tilstand_>
     bce:	08 95       	ret
		}
		else 		
		{
			tilstand_ = '0';
     bd0:	80 e3       	ldi	r24, 0x30	; 48
     bd2:	80 93 1c 02 	sts	0x021C, r24	; 0x80021c <tilstand_>
			return tilstand_;
     bd6:	80 91 1c 02 	lds	r24, 0x021C	; 0x80021c <tilstand_>
     bda:	08 95       	ret
		}
		break;

		case 'J':
		if (PINJ & (1 << port___))
     bdc:	80 91 03 01 	lds	r24, 0x0103	; 0x800103 <__TEXT_REGION_LENGTH__+0x700103>
     be0:	90 e0       	ldi	r25, 0x00	; 0
     be2:	00 90 1d 02 	lds	r0, 0x021D	; 0x80021d <port___>
     be6:	02 c0       	rjmp	.+4      	; 0xbec <toggleSwitchStatus+0x1a2>
     be8:	95 95       	asr	r25
     bea:	87 95       	ror	r24
     bec:	0a 94       	dec	r0
     bee:	e2 f7       	brpl	.-8      	; 0xbe8 <toggleSwitchStatus+0x19e>
     bf0:	80 ff       	sbrs	r24, 0
     bf2:	06 c0       	rjmp	.+12     	; 0xc00 <toggleSwitchStatus+0x1b6>
		{
			tilstand_ = '1';
     bf4:	81 e3       	ldi	r24, 0x31	; 49
     bf6:	80 93 1c 02 	sts	0x021C, r24	; 0x80021c <tilstand_>
			return tilstand_;
     bfa:	80 91 1c 02 	lds	r24, 0x021C	; 0x80021c <tilstand_>
     bfe:	08 95       	ret
		}
		else 		
		{
			tilstand_ = '0';
     c00:	80 e3       	ldi	r24, 0x30	; 48
     c02:	80 93 1c 02 	sts	0x021C, r24	; 0x80021c <tilstand_>
			return tilstand_;
     c06:	80 91 1c 02 	lds	r24, 0x021C	; 0x80021c <tilstand_>
     c0a:	08 95       	ret
		}
		break;

		case 'K':
		if (PINK & (1 << port___))
     c0c:	80 91 06 01 	lds	r24, 0x0106	; 0x800106 <__TEXT_REGION_LENGTH__+0x700106>
     c10:	90 e0       	ldi	r25, 0x00	; 0
     c12:	00 90 1d 02 	lds	r0, 0x021D	; 0x80021d <port___>
     c16:	02 c0       	rjmp	.+4      	; 0xc1c <toggleSwitchStatus+0x1d2>
     c18:	95 95       	asr	r25
     c1a:	87 95       	ror	r24
     c1c:	0a 94       	dec	r0
     c1e:	e2 f7       	brpl	.-8      	; 0xc18 <toggleSwitchStatus+0x1ce>
     c20:	80 ff       	sbrs	r24, 0
     c22:	06 c0       	rjmp	.+12     	; 0xc30 <toggleSwitchStatus+0x1e6>
		{
			tilstand_ = '1';
     c24:	81 e3       	ldi	r24, 0x31	; 49
     c26:	80 93 1c 02 	sts	0x021C, r24	; 0x80021c <tilstand_>
			return tilstand_;
     c2a:	80 91 1c 02 	lds	r24, 0x021C	; 0x80021c <tilstand_>
     c2e:	08 95       	ret
		}
		else 		
		{
			tilstand_ = '0';
     c30:	80 e3       	ldi	r24, 0x30	; 48
     c32:	80 93 1c 02 	sts	0x021C, r24	; 0x80021c <tilstand_>
			return tilstand_;
     c36:	80 91 1c 02 	lds	r24, 0x021C	; 0x80021c <tilstand_>
     c3a:	08 95       	ret
		}
		break;

		case 'L':
		if (PINL & (1 << port___))
     c3c:	80 91 09 01 	lds	r24, 0x0109	; 0x800109 <__TEXT_REGION_LENGTH__+0x700109>
     c40:	90 e0       	ldi	r25, 0x00	; 0
     c42:	00 90 1d 02 	lds	r0, 0x021D	; 0x80021d <port___>
     c46:	02 c0       	rjmp	.+4      	; 0xc4c <toggleSwitchStatus+0x202>
     c48:	95 95       	asr	r25
     c4a:	87 95       	ror	r24
     c4c:	0a 94       	dec	r0
     c4e:	e2 f7       	brpl	.-8      	; 0xc48 <toggleSwitchStatus+0x1fe>
     c50:	80 ff       	sbrs	r24, 0
     c52:	06 c0       	rjmp	.+12     	; 0xc60 <toggleSwitchStatus+0x216>
		{
			tilstand_ = '1';
     c54:	81 e3       	ldi	r24, 0x31	; 49
     c56:	80 93 1c 02 	sts	0x021C, r24	; 0x80021c <tilstand_>
			return tilstand_;
     c5a:	80 91 1c 02 	lds	r24, 0x021C	; 0x80021c <tilstand_>
     c5e:	08 95       	ret
		}
		else 		
		{
			tilstand_ = '0';
     c60:	80 e3       	ldi	r24, 0x30	; 48
     c62:	80 93 1c 02 	sts	0x021C, r24	; 0x80021c <tilstand_>
			return tilstand_;
     c66:	80 91 1c 02 	lds	r24, 0x021C	; 0x80021c <tilstand_>
     c6a:	08 95       	ret
		}
		break;
		default: return '0';
     c6c:	80 e3       	ldi	r24, 0x30	; 48
	}
     c6e:	08 95       	ret

00000c70 <initToggleSwitchLED>:

 #include "ToggleSwitchLED.h"

 void initToggleSwitchLED(char register_, short int port)
 {
	if (register_ > 'L' || register_ < 'A' || register_ == 'I')
     c70:	9f eb       	ldi	r25, 0xBF	; 191
     c72:	98 0f       	add	r25, r24
     c74:	9c 30       	cpi	r25, 0x0C	; 12
     c76:	10 f4       	brcc	.+4      	; 0xc7c <initToggleSwitchLED+0xc>
     c78:	89 34       	cpi	r24, 0x49	; 73
     c7a:	39 f4       	brne	.+14     	; 0xc8a <initToggleSwitchLED+0x1a>
	{
		register____ = 'A';
     c7c:	81 e4       	ldi	r24, 0x41	; 65
     c7e:	80 93 16 02 	sts	0x0216, r24	; 0x800216 <register____>
	}
	if (port > 7 || port < 0)
     c82:	68 30       	cpi	r22, 0x08	; 8
     c84:	71 05       	cpc	r23, r1
     c86:	20 f4       	brcc	.+8      	; 0xc90 <initToggleSwitchLED+0x20>
     c88:	19 c0       	rjmp	.+50     	; 0xcbc <initToggleSwitchLED+0x4c>
     c8a:	68 30       	cpi	r22, 0x08	; 8
     c8c:	71 05       	cpc	r23, r1
     c8e:	30 f0       	brcs	.+12     	; 0xc9c <initToggleSwitchLED+0x2c>
	{
		port____ = 1;
     c90:	81 e0       	ldi	r24, 0x01	; 1
     c92:	90 e0       	ldi	r25, 0x00	; 0
     c94:	90 93 14 02 	sts	0x0214, r25	; 0x800214 <port____+0x1>
     c98:	80 93 13 02 	sts	0x0213, r24	; 0x800213 <port____>
	}

	//sæt given pin til output

	switch (register____)
     c9c:	e0 91 16 02 	lds	r30, 0x0216	; 0x800216 <register____>
     ca0:	8e 2f       	mov	r24, r30
     ca2:	90 e0       	ldi	r25, 0x00	; 0
     ca4:	fc 01       	movw	r30, r24
     ca6:	e1 54       	subi	r30, 0x41	; 65
     ca8:	f1 09       	sbc	r31, r1
     caa:	ec 30       	cpi	r30, 0x0C	; 12
     cac:	f1 05       	cpc	r31, r1
     cae:	08 f0       	brcs	.+2      	; 0xcb2 <initToggleSwitchLED+0x42>
     cb0:	9b c0       	rjmp	.+310    	; 0xde8 <initToggleSwitchLED+0x178>
     cb2:	88 27       	eor	r24, r24
     cb4:	ee 55       	subi	r30, 0x5E	; 94
     cb6:	ff 4f       	sbci	r31, 0xFF	; 255
     cb8:	8f 4f       	sbci	r24, 0xFF	; 255
     cba:	01 c2       	rjmp	.+1026   	; 0x10be <__tablejump2__>
	{
	case 'A':
	DDRA |= (1 << port____);
     cbc:	21 b1       	in	r18, 0x01	; 1
     cbe:	81 e0       	ldi	r24, 0x01	; 1
     cc0:	90 e0       	ldi	r25, 0x00	; 0
     cc2:	00 90 13 02 	lds	r0, 0x0213	; 0x800213 <port____>
     cc6:	02 c0       	rjmp	.+4      	; 0xccc <initToggleSwitchLED+0x5c>
     cc8:	88 0f       	add	r24, r24
     cca:	99 1f       	adc	r25, r25
     ccc:	0a 94       	dec	r0
     cce:	e2 f7       	brpl	.-8      	; 0xcc8 <initToggleSwitchLED+0x58>
     cd0:	82 2b       	or	r24, r18
     cd2:	81 b9       	out	0x01, r24	; 1
	break;
     cd4:	08 95       	ret
	case 'B':
	DDRB |= (1 << port____);
     cd6:	24 b1       	in	r18, 0x04	; 4
     cd8:	81 e0       	ldi	r24, 0x01	; 1
     cda:	90 e0       	ldi	r25, 0x00	; 0
     cdc:	00 90 13 02 	lds	r0, 0x0213	; 0x800213 <port____>
     ce0:	02 c0       	rjmp	.+4      	; 0xce6 <initToggleSwitchLED+0x76>
     ce2:	88 0f       	add	r24, r24
     ce4:	99 1f       	adc	r25, r25
     ce6:	0a 94       	dec	r0
     ce8:	e2 f7       	brpl	.-8      	; 0xce2 <initToggleSwitchLED+0x72>
     cea:	82 2b       	or	r24, r18
     cec:	84 b9       	out	0x04, r24	; 4
	break;
     cee:	08 95       	ret
	case 'C':
	DDRC |= (1 << port____);
     cf0:	27 b1       	in	r18, 0x07	; 7
     cf2:	81 e0       	ldi	r24, 0x01	; 1
     cf4:	90 e0       	ldi	r25, 0x00	; 0
     cf6:	00 90 13 02 	lds	r0, 0x0213	; 0x800213 <port____>
     cfa:	02 c0       	rjmp	.+4      	; 0xd00 <initToggleSwitchLED+0x90>
     cfc:	88 0f       	add	r24, r24
     cfe:	99 1f       	adc	r25, r25
     d00:	0a 94       	dec	r0
     d02:	e2 f7       	brpl	.-8      	; 0xcfc <initToggleSwitchLED+0x8c>
     d04:	82 2b       	or	r24, r18
     d06:	87 b9       	out	0x07, r24	; 7
	break;
     d08:	08 95       	ret
	case 'D':
	DDRD |= (1 << port____);
     d0a:	2a b1       	in	r18, 0x0a	; 10
     d0c:	81 e0       	ldi	r24, 0x01	; 1
     d0e:	90 e0       	ldi	r25, 0x00	; 0
     d10:	00 90 13 02 	lds	r0, 0x0213	; 0x800213 <port____>
     d14:	02 c0       	rjmp	.+4      	; 0xd1a <initToggleSwitchLED+0xaa>
     d16:	88 0f       	add	r24, r24
     d18:	99 1f       	adc	r25, r25
     d1a:	0a 94       	dec	r0
     d1c:	e2 f7       	brpl	.-8      	; 0xd16 <initToggleSwitchLED+0xa6>
     d1e:	82 2b       	or	r24, r18
     d20:	8a b9       	out	0x0a, r24	; 10
	break;
     d22:	08 95       	ret
	case 'E':
	DDRE |= (1 << port____);
     d24:	2d b1       	in	r18, 0x0d	; 13
     d26:	81 e0       	ldi	r24, 0x01	; 1
     d28:	90 e0       	ldi	r25, 0x00	; 0
     d2a:	00 90 13 02 	lds	r0, 0x0213	; 0x800213 <port____>
     d2e:	02 c0       	rjmp	.+4      	; 0xd34 <initToggleSwitchLED+0xc4>
     d30:	88 0f       	add	r24, r24
     d32:	99 1f       	adc	r25, r25
     d34:	0a 94       	dec	r0
     d36:	e2 f7       	brpl	.-8      	; 0xd30 <initToggleSwitchLED+0xc0>
     d38:	82 2b       	or	r24, r18
     d3a:	8d b9       	out	0x0d, r24	; 13
	break;
     d3c:	08 95       	ret
	case 'F':
	DDRF |= (1 << port____);
     d3e:	20 b3       	in	r18, 0x10	; 16
     d40:	81 e0       	ldi	r24, 0x01	; 1
     d42:	90 e0       	ldi	r25, 0x00	; 0
     d44:	00 90 13 02 	lds	r0, 0x0213	; 0x800213 <port____>
     d48:	02 c0       	rjmp	.+4      	; 0xd4e <initToggleSwitchLED+0xde>
     d4a:	88 0f       	add	r24, r24
     d4c:	99 1f       	adc	r25, r25
     d4e:	0a 94       	dec	r0
     d50:	e2 f7       	brpl	.-8      	; 0xd4a <initToggleSwitchLED+0xda>
     d52:	82 2b       	or	r24, r18
     d54:	80 bb       	out	0x10, r24	; 16
	break;
     d56:	08 95       	ret
	case 'G':
	DDRG |= (1 << port____);
     d58:	23 b3       	in	r18, 0x13	; 19
     d5a:	81 e0       	ldi	r24, 0x01	; 1
     d5c:	90 e0       	ldi	r25, 0x00	; 0
     d5e:	00 90 13 02 	lds	r0, 0x0213	; 0x800213 <port____>
     d62:	02 c0       	rjmp	.+4      	; 0xd68 <initToggleSwitchLED+0xf8>
     d64:	88 0f       	add	r24, r24
     d66:	99 1f       	adc	r25, r25
     d68:	0a 94       	dec	r0
     d6a:	e2 f7       	brpl	.-8      	; 0xd64 <initToggleSwitchLED+0xf4>
     d6c:	82 2b       	or	r24, r18
     d6e:	83 bb       	out	0x13, r24	; 19
	break;
     d70:	08 95       	ret
	case 'H':
	DDRH |= (1 << port____);
     d72:	e1 e0       	ldi	r30, 0x01	; 1
     d74:	f1 e0       	ldi	r31, 0x01	; 1
     d76:	20 81       	ld	r18, Z
     d78:	81 e0       	ldi	r24, 0x01	; 1
     d7a:	90 e0       	ldi	r25, 0x00	; 0
     d7c:	00 90 13 02 	lds	r0, 0x0213	; 0x800213 <port____>
     d80:	02 c0       	rjmp	.+4      	; 0xd86 <initToggleSwitchLED+0x116>
     d82:	88 0f       	add	r24, r24
     d84:	99 1f       	adc	r25, r25
     d86:	0a 94       	dec	r0
     d88:	e2 f7       	brpl	.-8      	; 0xd82 <initToggleSwitchLED+0x112>
     d8a:	82 2b       	or	r24, r18
     d8c:	80 83       	st	Z, r24
	break;
     d8e:	08 95       	ret
	case 'J':
	DDRJ |= (1 << port____);
     d90:	e4 e0       	ldi	r30, 0x04	; 4
     d92:	f1 e0       	ldi	r31, 0x01	; 1
     d94:	20 81       	ld	r18, Z
     d96:	81 e0       	ldi	r24, 0x01	; 1
     d98:	90 e0       	ldi	r25, 0x00	; 0
     d9a:	00 90 13 02 	lds	r0, 0x0213	; 0x800213 <port____>
     d9e:	02 c0       	rjmp	.+4      	; 0xda4 <initToggleSwitchLED+0x134>
     da0:	88 0f       	add	r24, r24
     da2:	99 1f       	adc	r25, r25
     da4:	0a 94       	dec	r0
     da6:	e2 f7       	brpl	.-8      	; 0xda0 <initToggleSwitchLED+0x130>
     da8:	82 2b       	or	r24, r18
     daa:	80 83       	st	Z, r24
	break;
     dac:	08 95       	ret
	case 'K':
	DDRK |= (1 << port____);
     dae:	e7 e0       	ldi	r30, 0x07	; 7
     db0:	f1 e0       	ldi	r31, 0x01	; 1
     db2:	20 81       	ld	r18, Z
     db4:	81 e0       	ldi	r24, 0x01	; 1
     db6:	90 e0       	ldi	r25, 0x00	; 0
     db8:	00 90 13 02 	lds	r0, 0x0213	; 0x800213 <port____>
     dbc:	02 c0       	rjmp	.+4      	; 0xdc2 <initToggleSwitchLED+0x152>
     dbe:	88 0f       	add	r24, r24
     dc0:	99 1f       	adc	r25, r25
     dc2:	0a 94       	dec	r0
     dc4:	e2 f7       	brpl	.-8      	; 0xdbe <initToggleSwitchLED+0x14e>
     dc6:	82 2b       	or	r24, r18
     dc8:	80 83       	st	Z, r24
	break;
     dca:	08 95       	ret
	case 'L':
	DDRL |= (1 << port____);
     dcc:	ea e0       	ldi	r30, 0x0A	; 10
     dce:	f1 e0       	ldi	r31, 0x01	; 1
     dd0:	20 81       	ld	r18, Z
     dd2:	81 e0       	ldi	r24, 0x01	; 1
     dd4:	90 e0       	ldi	r25, 0x00	; 0
     dd6:	00 90 13 02 	lds	r0, 0x0213	; 0x800213 <port____>
     dda:	02 c0       	rjmp	.+4      	; 0xde0 <initToggleSwitchLED+0x170>
     ddc:	88 0f       	add	r24, r24
     dde:	99 1f       	adc	r25, r25
     de0:	0a 94       	dec	r0
     de2:	e2 f7       	brpl	.-8      	; 0xddc <initToggleSwitchLED+0x16c>
     de4:	82 2b       	or	r24, r18
     de6:	80 83       	st	Z, r24
     de8:	08 95       	ret

00000dea <setToggleSwitchLED>:
	}
 }


 void setToggleSwitchLED(char bool_)
 {
     dea:	28 2f       	mov	r18, r24
	switch (register____)
     dec:	e0 91 16 02 	lds	r30, 0x0216	; 0x800216 <register____>
     df0:	8e 2f       	mov	r24, r30
     df2:	90 e0       	ldi	r25, 0x00	; 0
     df4:	fc 01       	movw	r30, r24
     df6:	e1 54       	subi	r30, 0x41	; 65
     df8:	f1 09       	sbc	r31, r1
     dfa:	ec 30       	cpi	r30, 0x0C	; 12
     dfc:	f1 05       	cpc	r31, r1
     dfe:	08 f0       	brcs	.+2      	; 0xe02 <setToggleSwitchLED+0x18>
     e00:	53 c1       	rjmp	.+678    	; 0x10a8 <setToggleSwitchLED+0x2be>
     e02:	88 27       	eor	r24, r24
     e04:	e2 55       	subi	r30, 0x52	; 82
     e06:	ff 4f       	sbci	r31, 0xFF	; 255
     e08:	8f 4f       	sbci	r24, 0xFF	; 255
     e0a:	59 c1       	rjmp	.+690    	; 0x10be <__tablejump2__>
	{
		case 'A':
		if (bool_ == '0')
     e0c:	20 33       	cpi	r18, 0x30	; 48
     e0e:	71 f4       	brne	.+28     	; 0xe2c <setToggleSwitchLED+0x42>
		{
			PORTA &= ~(1 << port____);
     e10:	22 b1       	in	r18, 0x02	; 2
     e12:	81 e0       	ldi	r24, 0x01	; 1
     e14:	90 e0       	ldi	r25, 0x00	; 0
     e16:	00 90 13 02 	lds	r0, 0x0213	; 0x800213 <port____>
     e1a:	02 c0       	rjmp	.+4      	; 0xe20 <setToggleSwitchLED+0x36>
     e1c:	88 0f       	add	r24, r24
     e1e:	99 1f       	adc	r25, r25
     e20:	0a 94       	dec	r0
     e22:	e2 f7       	brpl	.-8      	; 0xe1c <setToggleSwitchLED+0x32>
     e24:	80 95       	com	r24
     e26:	82 23       	and	r24, r18
     e28:	82 b9       	out	0x02, r24	; 2
     e2a:	08 95       	ret
		}
		else 
		{
			PORTA |= (1 << port____);
     e2c:	22 b1       	in	r18, 0x02	; 2
     e2e:	81 e0       	ldi	r24, 0x01	; 1
     e30:	90 e0       	ldi	r25, 0x00	; 0
     e32:	00 90 13 02 	lds	r0, 0x0213	; 0x800213 <port____>
     e36:	02 c0       	rjmp	.+4      	; 0xe3c <setToggleSwitchLED+0x52>
     e38:	88 0f       	add	r24, r24
     e3a:	99 1f       	adc	r25, r25
     e3c:	0a 94       	dec	r0
     e3e:	e2 f7       	brpl	.-8      	; 0xe38 <setToggleSwitchLED+0x4e>
     e40:	82 2b       	or	r24, r18
     e42:	82 b9       	out	0x02, r24	; 2
     e44:	08 95       	ret
		}
		break;

		case 'B':
		if (bool_ == '0')
     e46:	20 33       	cpi	r18, 0x30	; 48
     e48:	71 f4       	brne	.+28     	; 0xe66 <setToggleSwitchLED+0x7c>
		{
			PORTB &= ~(1 << port____);
     e4a:	25 b1       	in	r18, 0x05	; 5
     e4c:	81 e0       	ldi	r24, 0x01	; 1
     e4e:	90 e0       	ldi	r25, 0x00	; 0
     e50:	00 90 13 02 	lds	r0, 0x0213	; 0x800213 <port____>
     e54:	02 c0       	rjmp	.+4      	; 0xe5a <setToggleSwitchLED+0x70>
     e56:	88 0f       	add	r24, r24
     e58:	99 1f       	adc	r25, r25
     e5a:	0a 94       	dec	r0
     e5c:	e2 f7       	brpl	.-8      	; 0xe56 <setToggleSwitchLED+0x6c>
     e5e:	80 95       	com	r24
     e60:	82 23       	and	r24, r18
     e62:	85 b9       	out	0x05, r24	; 5
     e64:	08 95       	ret
		}
		else
		{
			PORTB |= (1 << port____);
     e66:	25 b1       	in	r18, 0x05	; 5
     e68:	81 e0       	ldi	r24, 0x01	; 1
     e6a:	90 e0       	ldi	r25, 0x00	; 0
     e6c:	00 90 13 02 	lds	r0, 0x0213	; 0x800213 <port____>
     e70:	02 c0       	rjmp	.+4      	; 0xe76 <setToggleSwitchLED+0x8c>
     e72:	88 0f       	add	r24, r24
     e74:	99 1f       	adc	r25, r25
     e76:	0a 94       	dec	r0
     e78:	e2 f7       	brpl	.-8      	; 0xe72 <setToggleSwitchLED+0x88>
     e7a:	82 2b       	or	r24, r18
     e7c:	85 b9       	out	0x05, r24	; 5
     e7e:	08 95       	ret
		}
		break;
		case 'C':
		if (bool_ == '0')
     e80:	20 33       	cpi	r18, 0x30	; 48
     e82:	71 f4       	brne	.+28     	; 0xea0 <setToggleSwitchLED+0xb6>
		{
			PORTC &= ~(1 << port____);
     e84:	28 b1       	in	r18, 0x08	; 8
     e86:	81 e0       	ldi	r24, 0x01	; 1
     e88:	90 e0       	ldi	r25, 0x00	; 0
     e8a:	00 90 13 02 	lds	r0, 0x0213	; 0x800213 <port____>
     e8e:	02 c0       	rjmp	.+4      	; 0xe94 <setToggleSwitchLED+0xaa>
     e90:	88 0f       	add	r24, r24
     e92:	99 1f       	adc	r25, r25
     e94:	0a 94       	dec	r0
     e96:	e2 f7       	brpl	.-8      	; 0xe90 <setToggleSwitchLED+0xa6>
     e98:	80 95       	com	r24
     e9a:	82 23       	and	r24, r18
     e9c:	88 b9       	out	0x08, r24	; 8
     e9e:	08 95       	ret
		}
		else
		{
			PORTC |= (1 << port____);
     ea0:	28 b1       	in	r18, 0x08	; 8
     ea2:	81 e0       	ldi	r24, 0x01	; 1
     ea4:	90 e0       	ldi	r25, 0x00	; 0
     ea6:	00 90 13 02 	lds	r0, 0x0213	; 0x800213 <port____>
     eaa:	02 c0       	rjmp	.+4      	; 0xeb0 <setToggleSwitchLED+0xc6>
     eac:	88 0f       	add	r24, r24
     eae:	99 1f       	adc	r25, r25
     eb0:	0a 94       	dec	r0
     eb2:	e2 f7       	brpl	.-8      	; 0xeac <setToggleSwitchLED+0xc2>
     eb4:	82 2b       	or	r24, r18
     eb6:	88 b9       	out	0x08, r24	; 8
     eb8:	08 95       	ret
		}
		break;
		case 'D':
		if (bool_ == '0')
     eba:	20 33       	cpi	r18, 0x30	; 48
     ebc:	71 f4       	brne	.+28     	; 0xeda <setToggleSwitchLED+0xf0>
		{
			PORTD &= ~(1 << port____);
     ebe:	2b b1       	in	r18, 0x0b	; 11
     ec0:	81 e0       	ldi	r24, 0x01	; 1
     ec2:	90 e0       	ldi	r25, 0x00	; 0
     ec4:	00 90 13 02 	lds	r0, 0x0213	; 0x800213 <port____>
     ec8:	02 c0       	rjmp	.+4      	; 0xece <setToggleSwitchLED+0xe4>
     eca:	88 0f       	add	r24, r24
     ecc:	99 1f       	adc	r25, r25
     ece:	0a 94       	dec	r0
     ed0:	e2 f7       	brpl	.-8      	; 0xeca <setToggleSwitchLED+0xe0>
     ed2:	80 95       	com	r24
     ed4:	82 23       	and	r24, r18
     ed6:	8b b9       	out	0x0b, r24	; 11
     ed8:	08 95       	ret
		}
		else
		{
			PORTD |= (1 << port____);
     eda:	2b b1       	in	r18, 0x0b	; 11
     edc:	81 e0       	ldi	r24, 0x01	; 1
     ede:	90 e0       	ldi	r25, 0x00	; 0
     ee0:	00 90 13 02 	lds	r0, 0x0213	; 0x800213 <port____>
     ee4:	02 c0       	rjmp	.+4      	; 0xeea <setToggleSwitchLED+0x100>
     ee6:	88 0f       	add	r24, r24
     ee8:	99 1f       	adc	r25, r25
     eea:	0a 94       	dec	r0
     eec:	e2 f7       	brpl	.-8      	; 0xee6 <setToggleSwitchLED+0xfc>
     eee:	82 2b       	or	r24, r18
     ef0:	8b b9       	out	0x0b, r24	; 11
     ef2:	08 95       	ret
		}
		break;
		case 'E':
		if (bool_ == '0')
     ef4:	20 33       	cpi	r18, 0x30	; 48
     ef6:	71 f4       	brne	.+28     	; 0xf14 <setToggleSwitchLED+0x12a>
		{
			PORTE &= ~(1 << port____);
     ef8:	2e b1       	in	r18, 0x0e	; 14
     efa:	81 e0       	ldi	r24, 0x01	; 1
     efc:	90 e0       	ldi	r25, 0x00	; 0
     efe:	00 90 13 02 	lds	r0, 0x0213	; 0x800213 <port____>
     f02:	02 c0       	rjmp	.+4      	; 0xf08 <setToggleSwitchLED+0x11e>
     f04:	88 0f       	add	r24, r24
     f06:	99 1f       	adc	r25, r25
     f08:	0a 94       	dec	r0
     f0a:	e2 f7       	brpl	.-8      	; 0xf04 <setToggleSwitchLED+0x11a>
     f0c:	80 95       	com	r24
     f0e:	82 23       	and	r24, r18
     f10:	8e b9       	out	0x0e, r24	; 14
     f12:	08 95       	ret
		}
		else
		{
			PORTE |= (1 << port____);
     f14:	2e b1       	in	r18, 0x0e	; 14
     f16:	81 e0       	ldi	r24, 0x01	; 1
     f18:	90 e0       	ldi	r25, 0x00	; 0
     f1a:	00 90 13 02 	lds	r0, 0x0213	; 0x800213 <port____>
     f1e:	02 c0       	rjmp	.+4      	; 0xf24 <setToggleSwitchLED+0x13a>
     f20:	88 0f       	add	r24, r24
     f22:	99 1f       	adc	r25, r25
     f24:	0a 94       	dec	r0
     f26:	e2 f7       	brpl	.-8      	; 0xf20 <setToggleSwitchLED+0x136>
     f28:	82 2b       	or	r24, r18
     f2a:	8e b9       	out	0x0e, r24	; 14
     f2c:	08 95       	ret
		}
		break;
		case 'F':
		if (bool_ == '0')
     f2e:	20 33       	cpi	r18, 0x30	; 48
     f30:	71 f4       	brne	.+28     	; 0xf4e <setToggleSwitchLED+0x164>
		{
			PORTF &= ~(1 << port____);
     f32:	21 b3       	in	r18, 0x11	; 17
     f34:	81 e0       	ldi	r24, 0x01	; 1
     f36:	90 e0       	ldi	r25, 0x00	; 0
     f38:	00 90 13 02 	lds	r0, 0x0213	; 0x800213 <port____>
     f3c:	02 c0       	rjmp	.+4      	; 0xf42 <setToggleSwitchLED+0x158>
     f3e:	88 0f       	add	r24, r24
     f40:	99 1f       	adc	r25, r25
     f42:	0a 94       	dec	r0
     f44:	e2 f7       	brpl	.-8      	; 0xf3e <setToggleSwitchLED+0x154>
     f46:	80 95       	com	r24
     f48:	82 23       	and	r24, r18
     f4a:	81 bb       	out	0x11, r24	; 17
     f4c:	08 95       	ret
		}
		else
		{
			PORTF |= (1 << port____);
     f4e:	21 b3       	in	r18, 0x11	; 17
     f50:	81 e0       	ldi	r24, 0x01	; 1
     f52:	90 e0       	ldi	r25, 0x00	; 0
     f54:	00 90 13 02 	lds	r0, 0x0213	; 0x800213 <port____>
     f58:	02 c0       	rjmp	.+4      	; 0xf5e <setToggleSwitchLED+0x174>
     f5a:	88 0f       	add	r24, r24
     f5c:	99 1f       	adc	r25, r25
     f5e:	0a 94       	dec	r0
     f60:	e2 f7       	brpl	.-8      	; 0xf5a <setToggleSwitchLED+0x170>
     f62:	82 2b       	or	r24, r18
     f64:	81 bb       	out	0x11, r24	; 17
     f66:	08 95       	ret
		}
		break;
		case 'G':
		if (bool_ == '0')
     f68:	20 33       	cpi	r18, 0x30	; 48
     f6a:	71 f4       	brne	.+28     	; 0xf88 <setToggleSwitchLED+0x19e>
		{
			PORTG &= ~(1 << port____);
     f6c:	24 b3       	in	r18, 0x14	; 20
     f6e:	81 e0       	ldi	r24, 0x01	; 1
     f70:	90 e0       	ldi	r25, 0x00	; 0
     f72:	00 90 13 02 	lds	r0, 0x0213	; 0x800213 <port____>
     f76:	02 c0       	rjmp	.+4      	; 0xf7c <setToggleSwitchLED+0x192>
     f78:	88 0f       	add	r24, r24
     f7a:	99 1f       	adc	r25, r25
     f7c:	0a 94       	dec	r0
     f7e:	e2 f7       	brpl	.-8      	; 0xf78 <setToggleSwitchLED+0x18e>
     f80:	80 95       	com	r24
     f82:	82 23       	and	r24, r18
     f84:	84 bb       	out	0x14, r24	; 20
     f86:	08 95       	ret
		}
		else
		{
			PORTG |= (1 << port____);
     f88:	24 b3       	in	r18, 0x14	; 20
     f8a:	81 e0       	ldi	r24, 0x01	; 1
     f8c:	90 e0       	ldi	r25, 0x00	; 0
     f8e:	00 90 13 02 	lds	r0, 0x0213	; 0x800213 <port____>
     f92:	02 c0       	rjmp	.+4      	; 0xf98 <setToggleSwitchLED+0x1ae>
     f94:	88 0f       	add	r24, r24
     f96:	99 1f       	adc	r25, r25
     f98:	0a 94       	dec	r0
     f9a:	e2 f7       	brpl	.-8      	; 0xf94 <setToggleSwitchLED+0x1aa>
     f9c:	82 2b       	or	r24, r18
     f9e:	84 bb       	out	0x14, r24	; 20
     fa0:	08 95       	ret
		}
		break;
		case 'H':
		if (bool_ == '0')
     fa2:	20 33       	cpi	r18, 0x30	; 48
     fa4:	81 f4       	brne	.+32     	; 0xfc6 <setToggleSwitchLED+0x1dc>
		{
			PORTH &= ~(1 << port____);
     fa6:	e2 e0       	ldi	r30, 0x02	; 2
     fa8:	f1 e0       	ldi	r31, 0x01	; 1
     faa:	20 81       	ld	r18, Z
     fac:	81 e0       	ldi	r24, 0x01	; 1
     fae:	90 e0       	ldi	r25, 0x00	; 0
     fb0:	00 90 13 02 	lds	r0, 0x0213	; 0x800213 <port____>
     fb4:	02 c0       	rjmp	.+4      	; 0xfba <setToggleSwitchLED+0x1d0>
     fb6:	88 0f       	add	r24, r24
     fb8:	99 1f       	adc	r25, r25
     fba:	0a 94       	dec	r0
     fbc:	e2 f7       	brpl	.-8      	; 0xfb6 <setToggleSwitchLED+0x1cc>
     fbe:	80 95       	com	r24
     fc0:	82 23       	and	r24, r18
     fc2:	80 83       	st	Z, r24
     fc4:	08 95       	ret
		}
		else
		{
			PORTH |= (1 << port____);
     fc6:	e2 e0       	ldi	r30, 0x02	; 2
     fc8:	f1 e0       	ldi	r31, 0x01	; 1
     fca:	20 81       	ld	r18, Z
     fcc:	81 e0       	ldi	r24, 0x01	; 1
     fce:	90 e0       	ldi	r25, 0x00	; 0
     fd0:	00 90 13 02 	lds	r0, 0x0213	; 0x800213 <port____>
     fd4:	02 c0       	rjmp	.+4      	; 0xfda <setToggleSwitchLED+0x1f0>
     fd6:	88 0f       	add	r24, r24
     fd8:	99 1f       	adc	r25, r25
     fda:	0a 94       	dec	r0
     fdc:	e2 f7       	brpl	.-8      	; 0xfd6 <setToggleSwitchLED+0x1ec>
     fde:	82 2b       	or	r24, r18
     fe0:	80 83       	st	Z, r24
     fe2:	08 95       	ret
		}
		break;
		case 'J':
		if (bool_ == '0')
     fe4:	20 33       	cpi	r18, 0x30	; 48
     fe6:	81 f4       	brne	.+32     	; 0x1008 <setToggleSwitchLED+0x21e>
		{
			PORTJ &= ~(1 << port____);
     fe8:	e5 e0       	ldi	r30, 0x05	; 5
     fea:	f1 e0       	ldi	r31, 0x01	; 1
     fec:	20 81       	ld	r18, Z
     fee:	81 e0       	ldi	r24, 0x01	; 1
     ff0:	90 e0       	ldi	r25, 0x00	; 0
     ff2:	00 90 13 02 	lds	r0, 0x0213	; 0x800213 <port____>
     ff6:	02 c0       	rjmp	.+4      	; 0xffc <setToggleSwitchLED+0x212>
     ff8:	88 0f       	add	r24, r24
     ffa:	99 1f       	adc	r25, r25
     ffc:	0a 94       	dec	r0
     ffe:	e2 f7       	brpl	.-8      	; 0xff8 <setToggleSwitchLED+0x20e>
    1000:	80 95       	com	r24
    1002:	82 23       	and	r24, r18
    1004:	80 83       	st	Z, r24
    1006:	08 95       	ret
		}
		else
		{
			PORTJ |= (1 << port____);
    1008:	e5 e0       	ldi	r30, 0x05	; 5
    100a:	f1 e0       	ldi	r31, 0x01	; 1
    100c:	20 81       	ld	r18, Z
    100e:	81 e0       	ldi	r24, 0x01	; 1
    1010:	90 e0       	ldi	r25, 0x00	; 0
    1012:	00 90 13 02 	lds	r0, 0x0213	; 0x800213 <port____>
    1016:	02 c0       	rjmp	.+4      	; 0x101c <setToggleSwitchLED+0x232>
    1018:	88 0f       	add	r24, r24
    101a:	99 1f       	adc	r25, r25
    101c:	0a 94       	dec	r0
    101e:	e2 f7       	brpl	.-8      	; 0x1018 <setToggleSwitchLED+0x22e>
    1020:	82 2b       	or	r24, r18
    1022:	80 83       	st	Z, r24
    1024:	08 95       	ret
		}
		break;
		case 'K':
		if (bool_ == '0')
    1026:	20 33       	cpi	r18, 0x30	; 48
    1028:	81 f4       	brne	.+32     	; 0x104a <setToggleSwitchLED+0x260>
		{
			PORTK &= ~(1 << port____);
    102a:	e8 e0       	ldi	r30, 0x08	; 8
    102c:	f1 e0       	ldi	r31, 0x01	; 1
    102e:	20 81       	ld	r18, Z
    1030:	81 e0       	ldi	r24, 0x01	; 1
    1032:	90 e0       	ldi	r25, 0x00	; 0
    1034:	00 90 13 02 	lds	r0, 0x0213	; 0x800213 <port____>
    1038:	02 c0       	rjmp	.+4      	; 0x103e <setToggleSwitchLED+0x254>
    103a:	88 0f       	add	r24, r24
    103c:	99 1f       	adc	r25, r25
    103e:	0a 94       	dec	r0
    1040:	e2 f7       	brpl	.-8      	; 0x103a <setToggleSwitchLED+0x250>
    1042:	80 95       	com	r24
    1044:	82 23       	and	r24, r18
    1046:	80 83       	st	Z, r24
    1048:	08 95       	ret
		}
		else
		{
			PORTK |= (1 << port____);
    104a:	e8 e0       	ldi	r30, 0x08	; 8
    104c:	f1 e0       	ldi	r31, 0x01	; 1
    104e:	20 81       	ld	r18, Z
    1050:	81 e0       	ldi	r24, 0x01	; 1
    1052:	90 e0       	ldi	r25, 0x00	; 0
    1054:	00 90 13 02 	lds	r0, 0x0213	; 0x800213 <port____>
    1058:	02 c0       	rjmp	.+4      	; 0x105e <setToggleSwitchLED+0x274>
    105a:	88 0f       	add	r24, r24
    105c:	99 1f       	adc	r25, r25
    105e:	0a 94       	dec	r0
    1060:	e2 f7       	brpl	.-8      	; 0x105a <setToggleSwitchLED+0x270>
    1062:	82 2b       	or	r24, r18
    1064:	80 83       	st	Z, r24
    1066:	08 95       	ret
		}
		break;
		case 'L':
		if (bool_ == '0')
    1068:	20 33       	cpi	r18, 0x30	; 48
    106a:	81 f4       	brne	.+32     	; 0x108c <setToggleSwitchLED+0x2a2>
		{
			PORTL &= ~(1 << port____);
    106c:	eb e0       	ldi	r30, 0x0B	; 11
    106e:	f1 e0       	ldi	r31, 0x01	; 1
    1070:	20 81       	ld	r18, Z
    1072:	81 e0       	ldi	r24, 0x01	; 1
    1074:	90 e0       	ldi	r25, 0x00	; 0
    1076:	00 90 13 02 	lds	r0, 0x0213	; 0x800213 <port____>
    107a:	02 c0       	rjmp	.+4      	; 0x1080 <setToggleSwitchLED+0x296>
    107c:	88 0f       	add	r24, r24
    107e:	99 1f       	adc	r25, r25
    1080:	0a 94       	dec	r0
    1082:	e2 f7       	brpl	.-8      	; 0x107c <setToggleSwitchLED+0x292>
    1084:	80 95       	com	r24
    1086:	82 23       	and	r24, r18
    1088:	80 83       	st	Z, r24
    108a:	08 95       	ret
		}
		else
		{
			PORTL |= (1 << port____);
    108c:	eb e0       	ldi	r30, 0x0B	; 11
    108e:	f1 e0       	ldi	r31, 0x01	; 1
    1090:	20 81       	ld	r18, Z
    1092:	81 e0       	ldi	r24, 0x01	; 1
    1094:	90 e0       	ldi	r25, 0x00	; 0
    1096:	00 90 13 02 	lds	r0, 0x0213	; 0x800213 <port____>
    109a:	02 c0       	rjmp	.+4      	; 0x10a0 <setToggleSwitchLED+0x2b6>
    109c:	88 0f       	add	r24, r24
    109e:	99 1f       	adc	r25, r25
    10a0:	0a 94       	dec	r0
    10a2:	e2 f7       	brpl	.-8      	; 0x109c <setToggleSwitchLED+0x2b2>
    10a4:	82 2b       	or	r24, r18
    10a6:	80 83       	st	Z, r24
    10a8:	08 95       	ret

000010aa <initZCDetector>:
 void initZCDetector()
 {
	 //------------------------------------//
	 //			 interrupt test			  //
	 //------------------------------------//
	 DDRD &= ~(1 << 0);
    10aa:	50 98       	cbi	0x0a, 0	; 10
	 // PD2 (PCINT0 pin) is now an input
	 PORTD |= (1 << 0);
    10ac:	58 9a       	sbi	0x0b, 0	; 11
	 // PD2 is now an input with pull-up enabled
	 //EICRA |= (1 << ISC11) | (1 << ISC10);   // set INT0 to trigger on ANY logic change
	 EICRA = 0b00000011;
    10ae:	83 e0       	ldi	r24, 0x03	; 3
    10b0:	80 93 69 00 	sts	0x0069, r24	; 0x800069 <__TEXT_REGION_LENGTH__+0x700069>
	 EIMSK |= (1 << 0);
    10b4:	e8 9a       	sbi	0x1d, 0	; 29
	 //------------------------------------//

	 //Initializing
	 UCSR0B = 0;
    10b6:	10 92 c1 00 	sts	0x00C1, r1	; 0x8000c1 <__TEXT_REGION_LENGTH__+0x7000c1>
	 DDRB |= (1 << PINNR);		//OUTPUT
    10ba:	20 9a       	sbi	0x04, 0	; 4
    10bc:	08 95       	ret

000010be <__tablejump2__>:
    10be:	ee 0f       	add	r30, r30
    10c0:	ff 1f       	adc	r31, r31
    10c2:	88 1f       	adc	r24, r24
    10c4:	8b bf       	out	0x3b, r24	; 59
    10c6:	07 90       	elpm	r0, Z+
    10c8:	f6 91       	elpm	r31, Z
    10ca:	e0 2d       	mov	r30, r0
    10cc:	19 94       	eijmp

000010ce <calloc>:
    10ce:	0f 93       	push	r16
    10d0:	1f 93       	push	r17
    10d2:	cf 93       	push	r28
    10d4:	df 93       	push	r29
    10d6:	86 9f       	mul	r24, r22
    10d8:	80 01       	movw	r16, r0
    10da:	87 9f       	mul	r24, r23
    10dc:	10 0d       	add	r17, r0
    10de:	96 9f       	mul	r25, r22
    10e0:	10 0d       	add	r17, r0
    10e2:	11 24       	eor	r1, r1
    10e4:	c8 01       	movw	r24, r16
    10e6:	0d d0       	rcall	.+26     	; 0x1102 <malloc>
    10e8:	ec 01       	movw	r28, r24
    10ea:	00 97       	sbiw	r24, 0x00	; 0
    10ec:	21 f0       	breq	.+8      	; 0x10f6 <calloc+0x28>
    10ee:	a8 01       	movw	r20, r16
    10f0:	60 e0       	ldi	r22, 0x00	; 0
    10f2:	70 e0       	ldi	r23, 0x00	; 0
    10f4:	27 d1       	rcall	.+590    	; 0x1344 <memset>
    10f6:	ce 01       	movw	r24, r28
    10f8:	df 91       	pop	r29
    10fa:	cf 91       	pop	r28
    10fc:	1f 91       	pop	r17
    10fe:	0f 91       	pop	r16
    1100:	08 95       	ret

00001102 <malloc>:
    1102:	0f 93       	push	r16
    1104:	1f 93       	push	r17
    1106:	cf 93       	push	r28
    1108:	df 93       	push	r29
    110a:	82 30       	cpi	r24, 0x02	; 2
    110c:	91 05       	cpc	r25, r1
    110e:	10 f4       	brcc	.+4      	; 0x1114 <malloc+0x12>
    1110:	82 e0       	ldi	r24, 0x02	; 2
    1112:	90 e0       	ldi	r25, 0x00	; 0
    1114:	e0 91 24 02 	lds	r30, 0x0224	; 0x800224 <__flp>
    1118:	f0 91 25 02 	lds	r31, 0x0225	; 0x800225 <__flp+0x1>
    111c:	20 e0       	ldi	r18, 0x00	; 0
    111e:	30 e0       	ldi	r19, 0x00	; 0
    1120:	a0 e0       	ldi	r26, 0x00	; 0
    1122:	b0 e0       	ldi	r27, 0x00	; 0
    1124:	30 97       	sbiw	r30, 0x00	; 0
    1126:	19 f1       	breq	.+70     	; 0x116e <malloc+0x6c>
    1128:	40 81       	ld	r20, Z
    112a:	51 81       	ldd	r21, Z+1	; 0x01
    112c:	02 81       	ldd	r16, Z+2	; 0x02
    112e:	13 81       	ldd	r17, Z+3	; 0x03
    1130:	48 17       	cp	r20, r24
    1132:	59 07       	cpc	r21, r25
    1134:	c8 f0       	brcs	.+50     	; 0x1168 <malloc+0x66>
    1136:	84 17       	cp	r24, r20
    1138:	95 07       	cpc	r25, r21
    113a:	69 f4       	brne	.+26     	; 0x1156 <malloc+0x54>
    113c:	10 97       	sbiw	r26, 0x00	; 0
    113e:	31 f0       	breq	.+12     	; 0x114c <malloc+0x4a>
    1140:	12 96       	adiw	r26, 0x02	; 2
    1142:	0c 93       	st	X, r16
    1144:	12 97       	sbiw	r26, 0x02	; 2
    1146:	13 96       	adiw	r26, 0x03	; 3
    1148:	1c 93       	st	X, r17
    114a:	27 c0       	rjmp	.+78     	; 0x119a <malloc+0x98>
    114c:	00 93 24 02 	sts	0x0224, r16	; 0x800224 <__flp>
    1150:	10 93 25 02 	sts	0x0225, r17	; 0x800225 <__flp+0x1>
    1154:	22 c0       	rjmp	.+68     	; 0x119a <malloc+0x98>
    1156:	21 15       	cp	r18, r1
    1158:	31 05       	cpc	r19, r1
    115a:	19 f0       	breq	.+6      	; 0x1162 <malloc+0x60>
    115c:	42 17       	cp	r20, r18
    115e:	53 07       	cpc	r21, r19
    1160:	18 f4       	brcc	.+6      	; 0x1168 <malloc+0x66>
    1162:	9a 01       	movw	r18, r20
    1164:	bd 01       	movw	r22, r26
    1166:	ef 01       	movw	r28, r30
    1168:	df 01       	movw	r26, r30
    116a:	f8 01       	movw	r30, r16
    116c:	db cf       	rjmp	.-74     	; 0x1124 <malloc+0x22>
    116e:	21 15       	cp	r18, r1
    1170:	31 05       	cpc	r19, r1
    1172:	f9 f0       	breq	.+62     	; 0x11b2 <malloc+0xb0>
    1174:	28 1b       	sub	r18, r24
    1176:	39 0b       	sbc	r19, r25
    1178:	24 30       	cpi	r18, 0x04	; 4
    117a:	31 05       	cpc	r19, r1
    117c:	80 f4       	brcc	.+32     	; 0x119e <malloc+0x9c>
    117e:	8a 81       	ldd	r24, Y+2	; 0x02
    1180:	9b 81       	ldd	r25, Y+3	; 0x03
    1182:	61 15       	cp	r22, r1
    1184:	71 05       	cpc	r23, r1
    1186:	21 f0       	breq	.+8      	; 0x1190 <malloc+0x8e>
    1188:	fb 01       	movw	r30, r22
    118a:	93 83       	std	Z+3, r25	; 0x03
    118c:	82 83       	std	Z+2, r24	; 0x02
    118e:	04 c0       	rjmp	.+8      	; 0x1198 <malloc+0x96>
    1190:	90 93 25 02 	sts	0x0225, r25	; 0x800225 <__flp+0x1>
    1194:	80 93 24 02 	sts	0x0224, r24	; 0x800224 <__flp>
    1198:	fe 01       	movw	r30, r28
    119a:	32 96       	adiw	r30, 0x02	; 2
    119c:	44 c0       	rjmp	.+136    	; 0x1226 <malloc+0x124>
    119e:	fe 01       	movw	r30, r28
    11a0:	e2 0f       	add	r30, r18
    11a2:	f3 1f       	adc	r31, r19
    11a4:	81 93       	st	Z+, r24
    11a6:	91 93       	st	Z+, r25
    11a8:	22 50       	subi	r18, 0x02	; 2
    11aa:	31 09       	sbc	r19, r1
    11ac:	39 83       	std	Y+1, r19	; 0x01
    11ae:	28 83       	st	Y, r18
    11b0:	3a c0       	rjmp	.+116    	; 0x1226 <malloc+0x124>
    11b2:	20 91 22 02 	lds	r18, 0x0222	; 0x800222 <__brkval>
    11b6:	30 91 23 02 	lds	r19, 0x0223	; 0x800223 <__brkval+0x1>
    11ba:	23 2b       	or	r18, r19
    11bc:	41 f4       	brne	.+16     	; 0x11ce <malloc+0xcc>
    11be:	20 91 02 02 	lds	r18, 0x0202	; 0x800202 <__malloc_heap_start>
    11c2:	30 91 03 02 	lds	r19, 0x0203	; 0x800203 <__malloc_heap_start+0x1>
    11c6:	30 93 23 02 	sts	0x0223, r19	; 0x800223 <__brkval+0x1>
    11ca:	20 93 22 02 	sts	0x0222, r18	; 0x800222 <__brkval>
    11ce:	20 91 00 02 	lds	r18, 0x0200	; 0x800200 <__data_start>
    11d2:	30 91 01 02 	lds	r19, 0x0201	; 0x800201 <__data_start+0x1>
    11d6:	21 15       	cp	r18, r1
    11d8:	31 05       	cpc	r19, r1
    11da:	41 f4       	brne	.+16     	; 0x11ec <malloc+0xea>
    11dc:	2d b7       	in	r18, 0x3d	; 61
    11de:	3e b7       	in	r19, 0x3e	; 62
    11e0:	40 91 04 02 	lds	r20, 0x0204	; 0x800204 <__malloc_margin>
    11e4:	50 91 05 02 	lds	r21, 0x0205	; 0x800205 <__malloc_margin+0x1>
    11e8:	24 1b       	sub	r18, r20
    11ea:	35 0b       	sbc	r19, r21
    11ec:	e0 91 22 02 	lds	r30, 0x0222	; 0x800222 <__brkval>
    11f0:	f0 91 23 02 	lds	r31, 0x0223	; 0x800223 <__brkval+0x1>
    11f4:	e2 17       	cp	r30, r18
    11f6:	f3 07       	cpc	r31, r19
    11f8:	a0 f4       	brcc	.+40     	; 0x1222 <malloc+0x120>
    11fa:	2e 1b       	sub	r18, r30
    11fc:	3f 0b       	sbc	r19, r31
    11fe:	28 17       	cp	r18, r24
    1200:	39 07       	cpc	r19, r25
    1202:	78 f0       	brcs	.+30     	; 0x1222 <malloc+0x120>
    1204:	ac 01       	movw	r20, r24
    1206:	4e 5f       	subi	r20, 0xFE	; 254
    1208:	5f 4f       	sbci	r21, 0xFF	; 255
    120a:	24 17       	cp	r18, r20
    120c:	35 07       	cpc	r19, r21
    120e:	48 f0       	brcs	.+18     	; 0x1222 <malloc+0x120>
    1210:	4e 0f       	add	r20, r30
    1212:	5f 1f       	adc	r21, r31
    1214:	50 93 23 02 	sts	0x0223, r21	; 0x800223 <__brkval+0x1>
    1218:	40 93 22 02 	sts	0x0222, r20	; 0x800222 <__brkval>
    121c:	81 93       	st	Z+, r24
    121e:	91 93       	st	Z+, r25
    1220:	02 c0       	rjmp	.+4      	; 0x1226 <malloc+0x124>
    1222:	e0 e0       	ldi	r30, 0x00	; 0
    1224:	f0 e0       	ldi	r31, 0x00	; 0
    1226:	cf 01       	movw	r24, r30
    1228:	df 91       	pop	r29
    122a:	cf 91       	pop	r28
    122c:	1f 91       	pop	r17
    122e:	0f 91       	pop	r16
    1230:	08 95       	ret

00001232 <free>:
    1232:	cf 93       	push	r28
    1234:	df 93       	push	r29
    1236:	00 97       	sbiw	r24, 0x00	; 0
    1238:	09 f4       	brne	.+2      	; 0x123c <free+0xa>
    123a:	81 c0       	rjmp	.+258    	; 0x133e <free+0x10c>
    123c:	fc 01       	movw	r30, r24
    123e:	32 97       	sbiw	r30, 0x02	; 2
    1240:	13 82       	std	Z+3, r1	; 0x03
    1242:	12 82       	std	Z+2, r1	; 0x02
    1244:	a0 91 24 02 	lds	r26, 0x0224	; 0x800224 <__flp>
    1248:	b0 91 25 02 	lds	r27, 0x0225	; 0x800225 <__flp+0x1>
    124c:	10 97       	sbiw	r26, 0x00	; 0
    124e:	81 f4       	brne	.+32     	; 0x1270 <free+0x3e>
    1250:	20 81       	ld	r18, Z
    1252:	31 81       	ldd	r19, Z+1	; 0x01
    1254:	82 0f       	add	r24, r18
    1256:	93 1f       	adc	r25, r19
    1258:	20 91 22 02 	lds	r18, 0x0222	; 0x800222 <__brkval>
    125c:	30 91 23 02 	lds	r19, 0x0223	; 0x800223 <__brkval+0x1>
    1260:	28 17       	cp	r18, r24
    1262:	39 07       	cpc	r19, r25
    1264:	51 f5       	brne	.+84     	; 0x12ba <free+0x88>
    1266:	f0 93 23 02 	sts	0x0223, r31	; 0x800223 <__brkval+0x1>
    126a:	e0 93 22 02 	sts	0x0222, r30	; 0x800222 <__brkval>
    126e:	67 c0       	rjmp	.+206    	; 0x133e <free+0x10c>
    1270:	ed 01       	movw	r28, r26
    1272:	20 e0       	ldi	r18, 0x00	; 0
    1274:	30 e0       	ldi	r19, 0x00	; 0
    1276:	ce 17       	cp	r28, r30
    1278:	df 07       	cpc	r29, r31
    127a:	40 f4       	brcc	.+16     	; 0x128c <free+0x5a>
    127c:	4a 81       	ldd	r20, Y+2	; 0x02
    127e:	5b 81       	ldd	r21, Y+3	; 0x03
    1280:	9e 01       	movw	r18, r28
    1282:	41 15       	cp	r20, r1
    1284:	51 05       	cpc	r21, r1
    1286:	f1 f0       	breq	.+60     	; 0x12c4 <free+0x92>
    1288:	ea 01       	movw	r28, r20
    128a:	f5 cf       	rjmp	.-22     	; 0x1276 <free+0x44>
    128c:	d3 83       	std	Z+3, r29	; 0x03
    128e:	c2 83       	std	Z+2, r28	; 0x02
    1290:	40 81       	ld	r20, Z
    1292:	51 81       	ldd	r21, Z+1	; 0x01
    1294:	84 0f       	add	r24, r20
    1296:	95 1f       	adc	r25, r21
    1298:	c8 17       	cp	r28, r24
    129a:	d9 07       	cpc	r29, r25
    129c:	59 f4       	brne	.+22     	; 0x12b4 <free+0x82>
    129e:	88 81       	ld	r24, Y
    12a0:	99 81       	ldd	r25, Y+1	; 0x01
    12a2:	84 0f       	add	r24, r20
    12a4:	95 1f       	adc	r25, r21
    12a6:	02 96       	adiw	r24, 0x02	; 2
    12a8:	91 83       	std	Z+1, r25	; 0x01
    12aa:	80 83       	st	Z, r24
    12ac:	8a 81       	ldd	r24, Y+2	; 0x02
    12ae:	9b 81       	ldd	r25, Y+3	; 0x03
    12b0:	93 83       	std	Z+3, r25	; 0x03
    12b2:	82 83       	std	Z+2, r24	; 0x02
    12b4:	21 15       	cp	r18, r1
    12b6:	31 05       	cpc	r19, r1
    12b8:	29 f4       	brne	.+10     	; 0x12c4 <free+0x92>
    12ba:	f0 93 25 02 	sts	0x0225, r31	; 0x800225 <__flp+0x1>
    12be:	e0 93 24 02 	sts	0x0224, r30	; 0x800224 <__flp>
    12c2:	3d c0       	rjmp	.+122    	; 0x133e <free+0x10c>
    12c4:	e9 01       	movw	r28, r18
    12c6:	fb 83       	std	Y+3, r31	; 0x03
    12c8:	ea 83       	std	Y+2, r30	; 0x02
    12ca:	49 91       	ld	r20, Y+
    12cc:	59 91       	ld	r21, Y+
    12ce:	c4 0f       	add	r28, r20
    12d0:	d5 1f       	adc	r29, r21
    12d2:	ec 17       	cp	r30, r28
    12d4:	fd 07       	cpc	r31, r29
    12d6:	61 f4       	brne	.+24     	; 0x12f0 <free+0xbe>
    12d8:	80 81       	ld	r24, Z
    12da:	91 81       	ldd	r25, Z+1	; 0x01
    12dc:	84 0f       	add	r24, r20
    12de:	95 1f       	adc	r25, r21
    12e0:	02 96       	adiw	r24, 0x02	; 2
    12e2:	e9 01       	movw	r28, r18
    12e4:	99 83       	std	Y+1, r25	; 0x01
    12e6:	88 83       	st	Y, r24
    12e8:	82 81       	ldd	r24, Z+2	; 0x02
    12ea:	93 81       	ldd	r25, Z+3	; 0x03
    12ec:	9b 83       	std	Y+3, r25	; 0x03
    12ee:	8a 83       	std	Y+2, r24	; 0x02
    12f0:	e0 e0       	ldi	r30, 0x00	; 0
    12f2:	f0 e0       	ldi	r31, 0x00	; 0
    12f4:	12 96       	adiw	r26, 0x02	; 2
    12f6:	8d 91       	ld	r24, X+
    12f8:	9c 91       	ld	r25, X
    12fa:	13 97       	sbiw	r26, 0x03	; 3
    12fc:	00 97       	sbiw	r24, 0x00	; 0
    12fe:	19 f0       	breq	.+6      	; 0x1306 <free+0xd4>
    1300:	fd 01       	movw	r30, r26
    1302:	dc 01       	movw	r26, r24
    1304:	f7 cf       	rjmp	.-18     	; 0x12f4 <free+0xc2>
    1306:	8d 91       	ld	r24, X+
    1308:	9c 91       	ld	r25, X
    130a:	11 97       	sbiw	r26, 0x01	; 1
    130c:	9d 01       	movw	r18, r26
    130e:	2e 5f       	subi	r18, 0xFE	; 254
    1310:	3f 4f       	sbci	r19, 0xFF	; 255
    1312:	82 0f       	add	r24, r18
    1314:	93 1f       	adc	r25, r19
    1316:	20 91 22 02 	lds	r18, 0x0222	; 0x800222 <__brkval>
    131a:	30 91 23 02 	lds	r19, 0x0223	; 0x800223 <__brkval+0x1>
    131e:	28 17       	cp	r18, r24
    1320:	39 07       	cpc	r19, r25
    1322:	69 f4       	brne	.+26     	; 0x133e <free+0x10c>
    1324:	30 97       	sbiw	r30, 0x00	; 0
    1326:	29 f4       	brne	.+10     	; 0x1332 <free+0x100>
    1328:	10 92 25 02 	sts	0x0225, r1	; 0x800225 <__flp+0x1>
    132c:	10 92 24 02 	sts	0x0224, r1	; 0x800224 <__flp>
    1330:	02 c0       	rjmp	.+4      	; 0x1336 <free+0x104>
    1332:	13 82       	std	Z+3, r1	; 0x03
    1334:	12 82       	std	Z+2, r1	; 0x02
    1336:	b0 93 23 02 	sts	0x0223, r27	; 0x800223 <__brkval+0x1>
    133a:	a0 93 22 02 	sts	0x0222, r26	; 0x800222 <__brkval>
    133e:	df 91       	pop	r29
    1340:	cf 91       	pop	r28
    1342:	08 95       	ret

00001344 <memset>:
    1344:	dc 01       	movw	r26, r24
    1346:	01 c0       	rjmp	.+2      	; 0x134a <memset+0x6>
    1348:	6d 93       	st	X+, r22
    134a:	41 50       	subi	r20, 0x01	; 1
    134c:	50 40       	sbci	r21, 0x00	; 0
    134e:	e0 f7       	brcc	.-8      	; 0x1348 <memset+0x4>
    1350:	08 95       	ret

00001352 <_exit>:
    1352:	f8 94       	cli

00001354 <__stop_program>:
    1354:	ff cf       	rjmp	.-2      	; 0x1354 <__stop_program>
